
riscv_arithmetic_basic_test_0.o:     file format elf32-littleriscv


Disassembly of section .text:

00000000 <_start-0x1ffe>:
       0:	0001                	nop
       2:	00000013          	nop
       6:	00000013          	nop
       a:	00000013          	nop
       e:	00000013          	nop
      12:	00000013          	nop
      16:	00000013          	nop
      1a:	00000013          	nop
      1e:	00000013          	nop
      22:	00000013          	nop
      26:	00000013          	nop
      2a:	00000013          	nop
      2e:	00000013          	nop
      32:	00000013          	nop
      36:	00000013          	nop
      3a:	00000013          	nop
      3e:	00000013          	nop
      42:	00000013          	nop
      46:	00000013          	nop
      4a:	00000013          	nop
      4e:	00000013          	nop
      52:	00000013          	nop
      56:	00000013          	nop
      5a:	00000013          	nop
      5e:	00000013          	nop
      62:	00000013          	nop
      66:	00000013          	nop
      6a:	00000013          	nop
      6e:	00000013          	nop
      72:	00000013          	nop
      76:	00000013          	nop
      7a:	00000013          	nop
      7e:	00000013          	nop
      82:	00000013          	nop
      86:	00000013          	nop
      8a:	00000013          	nop
      8e:	00000013          	nop
      92:	00000013          	nop
      96:	00000013          	nop
      9a:	00000013          	nop
      9e:	00000013          	nop
      a2:	00000013          	nop
      a6:	00000013          	nop
      aa:	00000013          	nop
      ae:	00000013          	nop
      b2:	00000013          	nop
      b6:	00000013          	nop
      ba:	00000013          	nop
      be:	00000013          	nop
      c2:	00000013          	nop
      c6:	00000013          	nop
      ca:	00000013          	nop
      ce:	00000013          	nop
      d2:	00000013          	nop
      d6:	00000013          	nop
      da:	00000013          	nop
      de:	00000013          	nop
      e2:	00000013          	nop
      e6:	00000013          	nop
      ea:	00000013          	nop
      ee:	00000013          	nop
      f2:	00000013          	nop
      f6:	00000013          	nop
      fa:	00000013          	nop
      fe:	00000013          	nop
     102:	00000013          	nop
     106:	00000013          	nop
     10a:	00000013          	nop
     10e:	00000013          	nop
     112:	00000013          	nop
     116:	00000013          	nop
     11a:	00000013          	nop
     11e:	00000013          	nop
     122:	00000013          	nop
     126:	00000013          	nop
     12a:	00000013          	nop
     12e:	00000013          	nop
     132:	00000013          	nop
     136:	00000013          	nop
     13a:	00000013          	nop
     13e:	00000013          	nop
     142:	00000013          	nop
     146:	00000013          	nop
     14a:	00000013          	nop
     14e:	00000013          	nop
     152:	00000013          	nop
     156:	00000013          	nop
     15a:	00000013          	nop
     15e:	00000013          	nop
     162:	00000013          	nop
     166:	00000013          	nop
     16a:	00000013          	nop
     16e:	00000013          	nop
     172:	00000013          	nop
     176:	00000013          	nop
     17a:	00000013          	nop
     17e:	00000013          	nop
     182:	00000013          	nop
     186:	00000013          	nop
     18a:	00000013          	nop
     18e:	00000013          	nop
     192:	00000013          	nop
     196:	00000013          	nop
     19a:	00000013          	nop
     19e:	00000013          	nop
     1a2:	00000013          	nop
     1a6:	00000013          	nop
     1aa:	00000013          	nop
     1ae:	00000013          	nop
     1b2:	00000013          	nop
     1b6:	00000013          	nop
     1ba:	00000013          	nop
     1be:	00000013          	nop
     1c2:	00000013          	nop
     1c6:	00000013          	nop
     1ca:	00000013          	nop
     1ce:	00000013          	nop
     1d2:	00000013          	nop
     1d6:	00000013          	nop
     1da:	00000013          	nop
     1de:	00000013          	nop
     1e2:	00000013          	nop
     1e6:	00000013          	nop
     1ea:	00000013          	nop
     1ee:	00000013          	nop
     1f2:	00000013          	nop
     1f6:	00000013          	nop
     1fa:	00000013          	nop
     1fe:	00000013          	nop
     202:	00000013          	nop
     206:	00000013          	nop
     20a:	00000013          	nop
     20e:	00000013          	nop
     212:	00000013          	nop
     216:	00000013          	nop
     21a:	00000013          	nop
     21e:	00000013          	nop
     222:	00000013          	nop
     226:	00000013          	nop
     22a:	00000013          	nop
     22e:	00000013          	nop
     232:	00000013          	nop
     236:	00000013          	nop
     23a:	00000013          	nop
     23e:	00000013          	nop
     242:	00000013          	nop
     246:	00000013          	nop
     24a:	00000013          	nop
     24e:	00000013          	nop
     252:	00000013          	nop
     256:	00000013          	nop
     25a:	00000013          	nop
     25e:	00000013          	nop
     262:	00000013          	nop
     266:	00000013          	nop
     26a:	00000013          	nop
     26e:	00000013          	nop
     272:	00000013          	nop
     276:	00000013          	nop
     27a:	00000013          	nop
     27e:	00000013          	nop
     282:	00000013          	nop
     286:	00000013          	nop
     28a:	00000013          	nop
     28e:	00000013          	nop
     292:	00000013          	nop
     296:	00000013          	nop
     29a:	00000013          	nop
     29e:	00000013          	nop
     2a2:	00000013          	nop
     2a6:	00000013          	nop
     2aa:	00000013          	nop
     2ae:	00000013          	nop
     2b2:	00000013          	nop
     2b6:	00000013          	nop
     2ba:	00000013          	nop
     2be:	00000013          	nop
     2c2:	00000013          	nop
     2c6:	00000013          	nop
     2ca:	00000013          	nop
     2ce:	00000013          	nop
     2d2:	00000013          	nop
     2d6:	00000013          	nop
     2da:	00000013          	nop
     2de:	00000013          	nop
     2e2:	00000013          	nop
     2e6:	00000013          	nop
     2ea:	00000013          	nop
     2ee:	00000013          	nop
     2f2:	00000013          	nop
     2f6:	00000013          	nop
     2fa:	00000013          	nop
     2fe:	00000013          	nop
     302:	00000013          	nop
     306:	00000013          	nop
     30a:	00000013          	nop
     30e:	00000013          	nop
     312:	00000013          	nop
     316:	00000013          	nop
     31a:	00000013          	nop
     31e:	00000013          	nop
     322:	00000013          	nop
     326:	00000013          	nop
     32a:	00000013          	nop
     32e:	00000013          	nop
     332:	00000013          	nop
     336:	00000013          	nop
     33a:	00000013          	nop
     33e:	00000013          	nop
     342:	00000013          	nop
     346:	00000013          	nop
     34a:	00000013          	nop
     34e:	00000013          	nop
     352:	00000013          	nop
     356:	00000013          	nop
     35a:	00000013          	nop
     35e:	00000013          	nop
     362:	00000013          	nop
     366:	00000013          	nop
     36a:	00000013          	nop
     36e:	00000013          	nop
     372:	00000013          	nop
     376:	00000013          	nop
     37a:	00000013          	nop
     37e:	00000013          	nop
     382:	00000013          	nop
     386:	00000013          	nop
     38a:	00000013          	nop
     38e:	00000013          	nop
     392:	00000013          	nop
     396:	00000013          	nop
     39a:	00000013          	nop
     39e:	00000013          	nop
     3a2:	00000013          	nop
     3a6:	00000013          	nop
     3aa:	00000013          	nop
     3ae:	00000013          	nop
     3b2:	00000013          	nop
     3b6:	00000013          	nop
     3ba:	00000013          	nop
     3be:	00000013          	nop
     3c2:	00000013          	nop
     3c6:	00000013          	nop
     3ca:	00000013          	nop
     3ce:	00000013          	nop
     3d2:	00000013          	nop
     3d6:	00000013          	nop
     3da:	00000013          	nop
     3de:	00000013          	nop
     3e2:	00000013          	nop
     3e6:	00000013          	nop
     3ea:	00000013          	nop
     3ee:	00000013          	nop
     3f2:	00000013          	nop
     3f6:	00000013          	nop
     3fa:	00000013          	nop
     3fe:	00000013          	nop
     402:	00000013          	nop
     406:	00000013          	nop
     40a:	00000013          	nop
     40e:	00000013          	nop
     412:	00000013          	nop
     416:	00000013          	nop
     41a:	00000013          	nop
     41e:	00000013          	nop
     422:	00000013          	nop
     426:	00000013          	nop
     42a:	00000013          	nop
     42e:	00000013          	nop
     432:	00000013          	nop
     436:	00000013          	nop
     43a:	00000013          	nop
     43e:	00000013          	nop
     442:	00000013          	nop
     446:	00000013          	nop
     44a:	00000013          	nop
     44e:	00000013          	nop
     452:	00000013          	nop
     456:	00000013          	nop
     45a:	00000013          	nop
     45e:	00000013          	nop
     462:	00000013          	nop
     466:	00000013          	nop
     46a:	00000013          	nop
     46e:	00000013          	nop
     472:	00000013          	nop
     476:	00000013          	nop
     47a:	00000013          	nop
     47e:	00000013          	nop
     482:	00000013          	nop
     486:	00000013          	nop
     48a:	00000013          	nop
     48e:	00000013          	nop
     492:	00000013          	nop
     496:	00000013          	nop
     49a:	00000013          	nop
     49e:	00000013          	nop
     4a2:	00000013          	nop
     4a6:	00000013          	nop
     4aa:	00000013          	nop
     4ae:	00000013          	nop
     4b2:	00000013          	nop
     4b6:	00000013          	nop
     4ba:	00000013          	nop
     4be:	00000013          	nop
     4c2:	00000013          	nop
     4c6:	00000013          	nop
     4ca:	00000013          	nop
     4ce:	00000013          	nop
     4d2:	00000013          	nop
     4d6:	00000013          	nop
     4da:	00000013          	nop
     4de:	00000013          	nop
     4e2:	00000013          	nop
     4e6:	00000013          	nop
     4ea:	00000013          	nop
     4ee:	00000013          	nop
     4f2:	00000013          	nop
     4f6:	00000013          	nop
     4fa:	00000013          	nop
     4fe:	00000013          	nop
     502:	00000013          	nop
     506:	00000013          	nop
     50a:	00000013          	nop
     50e:	00000013          	nop
     512:	00000013          	nop
     516:	00000013          	nop
     51a:	00000013          	nop
     51e:	00000013          	nop
     522:	00000013          	nop
     526:	00000013          	nop
     52a:	00000013          	nop
     52e:	00000013          	nop
     532:	00000013          	nop
     536:	00000013          	nop
     53a:	00000013          	nop
     53e:	00000013          	nop
     542:	00000013          	nop
     546:	00000013          	nop
     54a:	00000013          	nop
     54e:	00000013          	nop
     552:	00000013          	nop
     556:	00000013          	nop
     55a:	00000013          	nop
     55e:	00000013          	nop
     562:	00000013          	nop
     566:	00000013          	nop
     56a:	00000013          	nop
     56e:	00000013          	nop
     572:	00000013          	nop
     576:	00000013          	nop
     57a:	00000013          	nop
     57e:	00000013          	nop
     582:	00000013          	nop
     586:	00000013          	nop
     58a:	00000013          	nop
     58e:	00000013          	nop
     592:	00000013          	nop
     596:	00000013          	nop
     59a:	00000013          	nop
     59e:	00000013          	nop
     5a2:	00000013          	nop
     5a6:	00000013          	nop
     5aa:	00000013          	nop
     5ae:	00000013          	nop
     5b2:	00000013          	nop
     5b6:	00000013          	nop
     5ba:	00000013          	nop
     5be:	00000013          	nop
     5c2:	00000013          	nop
     5c6:	00000013          	nop
     5ca:	00000013          	nop
     5ce:	00000013          	nop
     5d2:	00000013          	nop
     5d6:	00000013          	nop
     5da:	00000013          	nop
     5de:	00000013          	nop
     5e2:	00000013          	nop
     5e6:	00000013          	nop
     5ea:	00000013          	nop
     5ee:	00000013          	nop
     5f2:	00000013          	nop
     5f6:	00000013          	nop
     5fa:	00000013          	nop
     5fe:	00000013          	nop
     602:	00000013          	nop
     606:	00000013          	nop
     60a:	00000013          	nop
     60e:	00000013          	nop
     612:	00000013          	nop
     616:	00000013          	nop
     61a:	00000013          	nop
     61e:	00000013          	nop
     622:	00000013          	nop
     626:	00000013          	nop
     62a:	00000013          	nop
     62e:	00000013          	nop
     632:	00000013          	nop
     636:	00000013          	nop
     63a:	00000013          	nop
     63e:	00000013          	nop
     642:	00000013          	nop
     646:	00000013          	nop
     64a:	00000013          	nop
     64e:	00000013          	nop
     652:	00000013          	nop
     656:	00000013          	nop
     65a:	00000013          	nop
     65e:	00000013          	nop
     662:	00000013          	nop
     666:	00000013          	nop
     66a:	00000013          	nop
     66e:	00000013          	nop
     672:	00000013          	nop
     676:	00000013          	nop
     67a:	00000013          	nop
     67e:	00000013          	nop
     682:	00000013          	nop
     686:	00000013          	nop
     68a:	00000013          	nop
     68e:	00000013          	nop
     692:	00000013          	nop
     696:	00000013          	nop
     69a:	00000013          	nop
     69e:	00000013          	nop
     6a2:	00000013          	nop
     6a6:	00000013          	nop
     6aa:	00000013          	nop
     6ae:	00000013          	nop
     6b2:	00000013          	nop
     6b6:	00000013          	nop
     6ba:	00000013          	nop
     6be:	00000013          	nop
     6c2:	00000013          	nop
     6c6:	00000013          	nop
     6ca:	00000013          	nop
     6ce:	00000013          	nop
     6d2:	00000013          	nop
     6d6:	00000013          	nop
     6da:	00000013          	nop
     6de:	00000013          	nop
     6e2:	00000013          	nop
     6e6:	00000013          	nop
     6ea:	00000013          	nop
     6ee:	00000013          	nop
     6f2:	00000013          	nop
     6f6:	00000013          	nop
     6fa:	00000013          	nop
     6fe:	00000013          	nop
     702:	00000013          	nop
     706:	00000013          	nop
     70a:	00000013          	nop
     70e:	00000013          	nop
     712:	00000013          	nop
     716:	00000013          	nop
     71a:	00000013          	nop
     71e:	00000013          	nop
     722:	00000013          	nop
     726:	00000013          	nop
     72a:	00000013          	nop
     72e:	00000013          	nop
     732:	00000013          	nop
     736:	00000013          	nop
     73a:	00000013          	nop
     73e:	00000013          	nop
     742:	00000013          	nop
     746:	00000013          	nop
     74a:	00000013          	nop
     74e:	00000013          	nop
     752:	00000013          	nop
     756:	00000013          	nop
     75a:	00000013          	nop
     75e:	00000013          	nop
     762:	00000013          	nop
     766:	00000013          	nop
     76a:	00000013          	nop
     76e:	00000013          	nop
     772:	00000013          	nop
     776:	00000013          	nop
     77a:	00000013          	nop
     77e:	00000013          	nop
     782:	00000013          	nop
     786:	00000013          	nop
     78a:	00000013          	nop
     78e:	00000013          	nop
     792:	00000013          	nop
     796:	00000013          	nop
     79a:	00000013          	nop
     79e:	00000013          	nop
     7a2:	00000013          	nop
     7a6:	00000013          	nop
     7aa:	00000013          	nop
     7ae:	00000013          	nop
     7b2:	00000013          	nop
     7b6:	00000013          	nop
     7ba:	00000013          	nop
     7be:	00000013          	nop
     7c2:	00000013          	nop
     7c6:	00000013          	nop
     7ca:	00000013          	nop
     7ce:	00000013          	nop
     7d2:	00000013          	nop
     7d6:	00000013          	nop
     7da:	00000013          	nop
     7de:	00000013          	nop
     7e2:	00000013          	nop
     7e6:	00000013          	nop
     7ea:	00000013          	nop
     7ee:	00000013          	nop
     7f2:	00000013          	nop
     7f6:	00000013          	nop
     7fa:	00000013          	nop
     7fe:	00000013          	nop
     802:	00000013          	nop
     806:	00000013          	nop
     80a:	00000013          	nop
     80e:	00000013          	nop
     812:	00000013          	nop
     816:	00000013          	nop
     81a:	00000013          	nop
     81e:	00000013          	nop
     822:	00000013          	nop
     826:	00000013          	nop
     82a:	00000013          	nop
     82e:	00000013          	nop
     832:	00000013          	nop
     836:	00000013          	nop
     83a:	00000013          	nop
     83e:	00000013          	nop
     842:	00000013          	nop
     846:	00000013          	nop
     84a:	00000013          	nop
     84e:	00000013          	nop
     852:	00000013          	nop
     856:	00000013          	nop
     85a:	00000013          	nop
     85e:	00000013          	nop
     862:	00000013          	nop
     866:	00000013          	nop
     86a:	00000013          	nop
     86e:	00000013          	nop
     872:	00000013          	nop
     876:	00000013          	nop
     87a:	00000013          	nop
     87e:	00000013          	nop
     882:	00000013          	nop
     886:	00000013          	nop
     88a:	00000013          	nop
     88e:	00000013          	nop
     892:	00000013          	nop
     896:	00000013          	nop
     89a:	00000013          	nop
     89e:	00000013          	nop
     8a2:	00000013          	nop
     8a6:	00000013          	nop
     8aa:	00000013          	nop
     8ae:	00000013          	nop
     8b2:	00000013          	nop
     8b6:	00000013          	nop
     8ba:	00000013          	nop
     8be:	00000013          	nop
     8c2:	00000013          	nop
     8c6:	00000013          	nop
     8ca:	00000013          	nop
     8ce:	00000013          	nop
     8d2:	00000013          	nop
     8d6:	00000013          	nop
     8da:	00000013          	nop
     8de:	00000013          	nop
     8e2:	00000013          	nop
     8e6:	00000013          	nop
     8ea:	00000013          	nop
     8ee:	00000013          	nop
     8f2:	00000013          	nop
     8f6:	00000013          	nop
     8fa:	00000013          	nop
     8fe:	00000013          	nop
     902:	00000013          	nop
     906:	00000013          	nop
     90a:	00000013          	nop
     90e:	00000013          	nop
     912:	00000013          	nop
     916:	00000013          	nop
     91a:	00000013          	nop
     91e:	00000013          	nop
     922:	00000013          	nop
     926:	00000013          	nop
     92a:	00000013          	nop
     92e:	00000013          	nop
     932:	00000013          	nop
     936:	00000013          	nop
     93a:	00000013          	nop
     93e:	00000013          	nop
     942:	00000013          	nop
     946:	00000013          	nop
     94a:	00000013          	nop
     94e:	00000013          	nop
     952:	00000013          	nop
     956:	00000013          	nop
     95a:	00000013          	nop
     95e:	00000013          	nop
     962:	00000013          	nop
     966:	00000013          	nop
     96a:	00000013          	nop
     96e:	00000013          	nop
     972:	00000013          	nop
     976:	00000013          	nop
     97a:	00000013          	nop
     97e:	00000013          	nop
     982:	00000013          	nop
     986:	00000013          	nop
     98a:	00000013          	nop
     98e:	00000013          	nop
     992:	00000013          	nop
     996:	00000013          	nop
     99a:	00000013          	nop
     99e:	00000013          	nop
     9a2:	00000013          	nop
     9a6:	00000013          	nop
     9aa:	00000013          	nop
     9ae:	00000013          	nop
     9b2:	00000013          	nop
     9b6:	00000013          	nop
     9ba:	00000013          	nop
     9be:	00000013          	nop
     9c2:	00000013          	nop
     9c6:	00000013          	nop
     9ca:	00000013          	nop
     9ce:	00000013          	nop
     9d2:	00000013          	nop
     9d6:	00000013          	nop
     9da:	00000013          	nop
     9de:	00000013          	nop
     9e2:	00000013          	nop
     9e6:	00000013          	nop
     9ea:	00000013          	nop
     9ee:	00000013          	nop
     9f2:	00000013          	nop
     9f6:	00000013          	nop
     9fa:	00000013          	nop
     9fe:	00000013          	nop
     a02:	00000013          	nop
     a06:	00000013          	nop
     a0a:	00000013          	nop
     a0e:	00000013          	nop
     a12:	00000013          	nop
     a16:	00000013          	nop
     a1a:	00000013          	nop
     a1e:	00000013          	nop
     a22:	00000013          	nop
     a26:	00000013          	nop
     a2a:	00000013          	nop
     a2e:	00000013          	nop
     a32:	00000013          	nop
     a36:	00000013          	nop
     a3a:	00000013          	nop
     a3e:	00000013          	nop
     a42:	00000013          	nop
     a46:	00000013          	nop
     a4a:	00000013          	nop
     a4e:	00000013          	nop
     a52:	00000013          	nop
     a56:	00000013          	nop
     a5a:	00000013          	nop
     a5e:	00000013          	nop
     a62:	00000013          	nop
     a66:	00000013          	nop
     a6a:	00000013          	nop
     a6e:	00000013          	nop
     a72:	00000013          	nop
     a76:	00000013          	nop
     a7a:	00000013          	nop
     a7e:	00000013          	nop
     a82:	00000013          	nop
     a86:	00000013          	nop
     a8a:	00000013          	nop
     a8e:	00000013          	nop
     a92:	00000013          	nop
     a96:	00000013          	nop
     a9a:	00000013          	nop
     a9e:	00000013          	nop
     aa2:	00000013          	nop
     aa6:	00000013          	nop
     aaa:	00000013          	nop
     aae:	00000013          	nop
     ab2:	00000013          	nop
     ab6:	00000013          	nop
     aba:	00000013          	nop
     abe:	00000013          	nop
     ac2:	00000013          	nop
     ac6:	00000013          	nop
     aca:	00000013          	nop
     ace:	00000013          	nop
     ad2:	00000013          	nop
     ad6:	00000013          	nop
     ada:	00000013          	nop
     ade:	00000013          	nop
     ae2:	00000013          	nop
     ae6:	00000013          	nop
     aea:	00000013          	nop
     aee:	00000013          	nop
     af2:	00000013          	nop
     af6:	00000013          	nop
     afa:	00000013          	nop
     afe:	00000013          	nop
     b02:	00000013          	nop
     b06:	00000013          	nop
     b0a:	00000013          	nop
     b0e:	00000013          	nop
     b12:	00000013          	nop
     b16:	00000013          	nop
     b1a:	00000013          	nop
     b1e:	00000013          	nop
     b22:	00000013          	nop
     b26:	00000013          	nop
     b2a:	00000013          	nop
     b2e:	00000013          	nop
     b32:	00000013          	nop
     b36:	00000013          	nop
     b3a:	00000013          	nop
     b3e:	00000013          	nop
     b42:	00000013          	nop
     b46:	00000013          	nop
     b4a:	00000013          	nop
     b4e:	00000013          	nop
     b52:	00000013          	nop
     b56:	00000013          	nop
     b5a:	00000013          	nop
     b5e:	00000013          	nop
     b62:	00000013          	nop
     b66:	00000013          	nop
     b6a:	00000013          	nop
     b6e:	00000013          	nop
     b72:	00000013          	nop
     b76:	00000013          	nop
     b7a:	00000013          	nop
     b7e:	00000013          	nop
     b82:	00000013          	nop
     b86:	00000013          	nop
     b8a:	00000013          	nop
     b8e:	00000013          	nop
     b92:	00000013          	nop
     b96:	00000013          	nop
     b9a:	00000013          	nop
     b9e:	00000013          	nop
     ba2:	00000013          	nop
     ba6:	00000013          	nop
     baa:	00000013          	nop
     bae:	00000013          	nop
     bb2:	00000013          	nop
     bb6:	00000013          	nop
     bba:	00000013          	nop
     bbe:	00000013          	nop
     bc2:	00000013          	nop
     bc6:	00000013          	nop
     bca:	00000013          	nop
     bce:	00000013          	nop
     bd2:	00000013          	nop
     bd6:	00000013          	nop
     bda:	00000013          	nop
     bde:	00000013          	nop
     be2:	00000013          	nop
     be6:	00000013          	nop
     bea:	00000013          	nop
     bee:	00000013          	nop
     bf2:	00000013          	nop
     bf6:	00000013          	nop
     bfa:	00000013          	nop
     bfe:	00000013          	nop
     c02:	00000013          	nop
     c06:	00000013          	nop
     c0a:	00000013          	nop
     c0e:	00000013          	nop
     c12:	00000013          	nop
     c16:	00000013          	nop
     c1a:	00000013          	nop
     c1e:	00000013          	nop
     c22:	00000013          	nop
     c26:	00000013          	nop
     c2a:	00000013          	nop
     c2e:	00000013          	nop
     c32:	00000013          	nop
     c36:	00000013          	nop
     c3a:	00000013          	nop
     c3e:	00000013          	nop
     c42:	00000013          	nop
     c46:	00000013          	nop
     c4a:	00000013          	nop
     c4e:	00000013          	nop
     c52:	00000013          	nop
     c56:	00000013          	nop
     c5a:	00000013          	nop
     c5e:	00000013          	nop
     c62:	00000013          	nop
     c66:	00000013          	nop
     c6a:	00000013          	nop
     c6e:	00000013          	nop
     c72:	00000013          	nop
     c76:	00000013          	nop
     c7a:	00000013          	nop
     c7e:	00000013          	nop
     c82:	00000013          	nop
     c86:	00000013          	nop
     c8a:	00000013          	nop
     c8e:	00000013          	nop
     c92:	00000013          	nop
     c96:	00000013          	nop
     c9a:	00000013          	nop
     c9e:	00000013          	nop
     ca2:	00000013          	nop
     ca6:	00000013          	nop
     caa:	00000013          	nop
     cae:	00000013          	nop
     cb2:	00000013          	nop
     cb6:	00000013          	nop
     cba:	00000013          	nop
     cbe:	00000013          	nop
     cc2:	00000013          	nop
     cc6:	00000013          	nop
     cca:	00000013          	nop
     cce:	00000013          	nop
     cd2:	00000013          	nop
     cd6:	00000013          	nop
     cda:	00000013          	nop
     cde:	00000013          	nop
     ce2:	00000013          	nop
     ce6:	00000013          	nop
     cea:	00000013          	nop
     cee:	00000013          	nop
     cf2:	00000013          	nop
     cf6:	00000013          	nop
     cfa:	00000013          	nop
     cfe:	00000013          	nop
     d02:	00000013          	nop
     d06:	00000013          	nop
     d0a:	00000013          	nop
     d0e:	00000013          	nop
     d12:	00000013          	nop
     d16:	00000013          	nop
     d1a:	00000013          	nop
     d1e:	00000013          	nop
     d22:	00000013          	nop
     d26:	00000013          	nop
     d2a:	00000013          	nop
     d2e:	00000013          	nop
     d32:	00000013          	nop
     d36:	00000013          	nop
     d3a:	00000013          	nop
     d3e:	00000013          	nop
     d42:	00000013          	nop
     d46:	00000013          	nop
     d4a:	00000013          	nop
     d4e:	00000013          	nop
     d52:	00000013          	nop
     d56:	00000013          	nop
     d5a:	00000013          	nop
     d5e:	00000013          	nop
     d62:	00000013          	nop
     d66:	00000013          	nop
     d6a:	00000013          	nop
     d6e:	00000013          	nop
     d72:	00000013          	nop
     d76:	00000013          	nop
     d7a:	00000013          	nop
     d7e:	00000013          	nop
     d82:	00000013          	nop
     d86:	00000013          	nop
     d8a:	00000013          	nop
     d8e:	00000013          	nop
     d92:	00000013          	nop
     d96:	00000013          	nop
     d9a:	00000013          	nop
     d9e:	00000013          	nop
     da2:	00000013          	nop
     da6:	00000013          	nop
     daa:	00000013          	nop
     dae:	00000013          	nop
     db2:	00000013          	nop
     db6:	00000013          	nop
     dba:	00000013          	nop
     dbe:	00000013          	nop
     dc2:	00000013          	nop
     dc6:	00000013          	nop
     dca:	00000013          	nop
     dce:	00000013          	nop
     dd2:	00000013          	nop
     dd6:	00000013          	nop
     dda:	00000013          	nop
     dde:	00000013          	nop
     de2:	00000013          	nop
     de6:	00000013          	nop
     dea:	00000013          	nop
     dee:	00000013          	nop
     df2:	00000013          	nop
     df6:	00000013          	nop
     dfa:	00000013          	nop
     dfe:	00000013          	nop
     e02:	00000013          	nop
     e06:	00000013          	nop
     e0a:	00000013          	nop
     e0e:	00000013          	nop
     e12:	00000013          	nop
     e16:	00000013          	nop
     e1a:	00000013          	nop
     e1e:	00000013          	nop
     e22:	00000013          	nop
     e26:	00000013          	nop
     e2a:	00000013          	nop
     e2e:	00000013          	nop
     e32:	00000013          	nop
     e36:	00000013          	nop
     e3a:	00000013          	nop
     e3e:	00000013          	nop
     e42:	00000013          	nop
     e46:	00000013          	nop
     e4a:	00000013          	nop
     e4e:	00000013          	nop
     e52:	00000013          	nop
     e56:	00000013          	nop
     e5a:	00000013          	nop
     e5e:	00000013          	nop
     e62:	00000013          	nop
     e66:	00000013          	nop
     e6a:	00000013          	nop
     e6e:	00000013          	nop
     e72:	00000013          	nop
     e76:	00000013          	nop
     e7a:	00000013          	nop
     e7e:	00000013          	nop
     e82:	00000013          	nop
     e86:	00000013          	nop
     e8a:	00000013          	nop
     e8e:	00000013          	nop
     e92:	00000013          	nop
     e96:	00000013          	nop
     e9a:	00000013          	nop
     e9e:	00000013          	nop
     ea2:	00000013          	nop
     ea6:	00000013          	nop
     eaa:	00000013          	nop
     eae:	00000013          	nop
     eb2:	00000013          	nop
     eb6:	00000013          	nop
     eba:	00000013          	nop
     ebe:	00000013          	nop
     ec2:	00000013          	nop
     ec6:	00000013          	nop
     eca:	00000013          	nop
     ece:	00000013          	nop
     ed2:	00000013          	nop
     ed6:	00000013          	nop
     eda:	00000013          	nop
     ede:	00000013          	nop
     ee2:	00000013          	nop
     ee6:	00000013          	nop
     eea:	00000013          	nop
     eee:	00000013          	nop
     ef2:	00000013          	nop
     ef6:	00000013          	nop
     efa:	00000013          	nop
     efe:	00000013          	nop
     f02:	00000013          	nop
     f06:	00000013          	nop
     f0a:	00000013          	nop
     f0e:	00000013          	nop
     f12:	00000013          	nop
     f16:	00000013          	nop
     f1a:	00000013          	nop
     f1e:	00000013          	nop
     f22:	00000013          	nop
     f26:	00000013          	nop
     f2a:	00000013          	nop
     f2e:	00000013          	nop
     f32:	00000013          	nop
     f36:	00000013          	nop
     f3a:	00000013          	nop
     f3e:	00000013          	nop
     f42:	00000013          	nop
     f46:	00000013          	nop
     f4a:	00000013          	nop
     f4e:	00000013          	nop
     f52:	00000013          	nop
     f56:	00000013          	nop
     f5a:	00000013          	nop
     f5e:	00000013          	nop
     f62:	00000013          	nop
     f66:	00000013          	nop
     f6a:	00000013          	nop
     f6e:	00000013          	nop
     f72:	00000013          	nop
     f76:	00000013          	nop
     f7a:	00000013          	nop
     f7e:	00000013          	nop
     f82:	00000013          	nop
     f86:	00000013          	nop
     f8a:	00000013          	nop
     f8e:	00000013          	nop
     f92:	00000013          	nop
     f96:	00000013          	nop
     f9a:	00000013          	nop
     f9e:	00000013          	nop
     fa2:	00000013          	nop
     fa6:	00000013          	nop
     faa:	00000013          	nop
     fae:	00000013          	nop
     fb2:	00000013          	nop
     fb6:	00000013          	nop
     fba:	00000013          	nop
     fbe:	00000013          	nop
     fc2:	00000013          	nop
     fc6:	00000013          	nop
     fca:	00000013          	nop
     fce:	00000013          	nop
     fd2:	00000013          	nop
     fd6:	00000013          	nop
     fda:	00000013          	nop
     fde:	00000013          	nop
     fe2:	00000013          	nop
     fe6:	00000013          	nop
     fea:	00000013          	nop
     fee:	00000013          	nop
     ff2:	00000013          	nop
     ff6:	00000013          	nop
     ffa:	00000013          	nop
     ffe:	00000013          	nop
    1002:	00000013          	nop
    1006:	00000013          	nop
    100a:	00000013          	nop
    100e:	00000013          	nop
    1012:	00000013          	nop
    1016:	00000013          	nop
    101a:	00000013          	nop
    101e:	00000013          	nop
    1022:	00000013          	nop
    1026:	00000013          	nop
    102a:	00000013          	nop
    102e:	00000013          	nop
    1032:	00000013          	nop
    1036:	00000013          	nop
    103a:	00000013          	nop
    103e:	00000013          	nop
    1042:	00000013          	nop
    1046:	00000013          	nop
    104a:	00000013          	nop
    104e:	00000013          	nop
    1052:	00000013          	nop
    1056:	00000013          	nop
    105a:	00000013          	nop
    105e:	00000013          	nop
    1062:	00000013          	nop
    1066:	00000013          	nop
    106a:	00000013          	nop
    106e:	00000013          	nop
    1072:	00000013          	nop
    1076:	00000013          	nop
    107a:	00000013          	nop
    107e:	00000013          	nop
    1082:	00000013          	nop
    1086:	00000013          	nop
    108a:	00000013          	nop
    108e:	00000013          	nop
    1092:	00000013          	nop
    1096:	00000013          	nop
    109a:	00000013          	nop
    109e:	00000013          	nop
    10a2:	00000013          	nop
    10a6:	00000013          	nop
    10aa:	00000013          	nop
    10ae:	00000013          	nop
    10b2:	00000013          	nop
    10b6:	00000013          	nop
    10ba:	00000013          	nop
    10be:	00000013          	nop
    10c2:	00000013          	nop
    10c6:	00000013          	nop
    10ca:	00000013          	nop
    10ce:	00000013          	nop
    10d2:	00000013          	nop
    10d6:	00000013          	nop
    10da:	00000013          	nop
    10de:	00000013          	nop
    10e2:	00000013          	nop
    10e6:	00000013          	nop
    10ea:	00000013          	nop
    10ee:	00000013          	nop
    10f2:	00000013          	nop
    10f6:	00000013          	nop
    10fa:	00000013          	nop
    10fe:	00000013          	nop
    1102:	00000013          	nop
    1106:	00000013          	nop
    110a:	00000013          	nop
    110e:	00000013          	nop
    1112:	00000013          	nop
    1116:	00000013          	nop
    111a:	00000013          	nop
    111e:	00000013          	nop
    1122:	00000013          	nop
    1126:	00000013          	nop
    112a:	00000013          	nop
    112e:	00000013          	nop
    1132:	00000013          	nop
    1136:	00000013          	nop
    113a:	00000013          	nop
    113e:	00000013          	nop
    1142:	00000013          	nop
    1146:	00000013          	nop
    114a:	00000013          	nop
    114e:	00000013          	nop
    1152:	00000013          	nop
    1156:	00000013          	nop
    115a:	00000013          	nop
    115e:	00000013          	nop
    1162:	00000013          	nop
    1166:	00000013          	nop
    116a:	00000013          	nop
    116e:	00000013          	nop
    1172:	00000013          	nop
    1176:	00000013          	nop
    117a:	00000013          	nop
    117e:	00000013          	nop
    1182:	00000013          	nop
    1186:	00000013          	nop
    118a:	00000013          	nop
    118e:	00000013          	nop
    1192:	00000013          	nop
    1196:	00000013          	nop
    119a:	00000013          	nop
    119e:	00000013          	nop
    11a2:	00000013          	nop
    11a6:	00000013          	nop
    11aa:	00000013          	nop
    11ae:	00000013          	nop
    11b2:	00000013          	nop
    11b6:	00000013          	nop
    11ba:	00000013          	nop
    11be:	00000013          	nop
    11c2:	00000013          	nop
    11c6:	00000013          	nop
    11ca:	00000013          	nop
    11ce:	00000013          	nop
    11d2:	00000013          	nop
    11d6:	00000013          	nop
    11da:	00000013          	nop
    11de:	00000013          	nop
    11e2:	00000013          	nop
    11e6:	00000013          	nop
    11ea:	00000013          	nop
    11ee:	00000013          	nop
    11f2:	00000013          	nop
    11f6:	00000013          	nop
    11fa:	00000013          	nop
    11fe:	00000013          	nop
    1202:	00000013          	nop
    1206:	00000013          	nop
    120a:	00000013          	nop
    120e:	00000013          	nop
    1212:	00000013          	nop
    1216:	00000013          	nop
    121a:	00000013          	nop
    121e:	00000013          	nop
    1222:	00000013          	nop
    1226:	00000013          	nop
    122a:	00000013          	nop
    122e:	00000013          	nop
    1232:	00000013          	nop
    1236:	00000013          	nop
    123a:	00000013          	nop
    123e:	00000013          	nop
    1242:	00000013          	nop
    1246:	00000013          	nop
    124a:	00000013          	nop
    124e:	00000013          	nop
    1252:	00000013          	nop
    1256:	00000013          	nop
    125a:	00000013          	nop
    125e:	00000013          	nop
    1262:	00000013          	nop
    1266:	00000013          	nop
    126a:	00000013          	nop
    126e:	00000013          	nop
    1272:	00000013          	nop
    1276:	00000013          	nop
    127a:	00000013          	nop
    127e:	00000013          	nop
    1282:	00000013          	nop
    1286:	00000013          	nop
    128a:	00000013          	nop
    128e:	00000013          	nop
    1292:	00000013          	nop
    1296:	00000013          	nop
    129a:	00000013          	nop
    129e:	00000013          	nop
    12a2:	00000013          	nop
    12a6:	00000013          	nop
    12aa:	00000013          	nop
    12ae:	00000013          	nop
    12b2:	00000013          	nop
    12b6:	00000013          	nop
    12ba:	00000013          	nop
    12be:	00000013          	nop
    12c2:	00000013          	nop
    12c6:	00000013          	nop
    12ca:	00000013          	nop
    12ce:	00000013          	nop
    12d2:	00000013          	nop
    12d6:	00000013          	nop
    12da:	00000013          	nop
    12de:	00000013          	nop
    12e2:	00000013          	nop
    12e6:	00000013          	nop
    12ea:	00000013          	nop
    12ee:	00000013          	nop
    12f2:	00000013          	nop
    12f6:	00000013          	nop
    12fa:	00000013          	nop
    12fe:	00000013          	nop
    1302:	00000013          	nop
    1306:	00000013          	nop
    130a:	00000013          	nop
    130e:	00000013          	nop
    1312:	00000013          	nop
    1316:	00000013          	nop
    131a:	00000013          	nop
    131e:	00000013          	nop
    1322:	00000013          	nop
    1326:	00000013          	nop
    132a:	00000013          	nop
    132e:	00000013          	nop
    1332:	00000013          	nop
    1336:	00000013          	nop
    133a:	00000013          	nop
    133e:	00000013          	nop
    1342:	00000013          	nop
    1346:	00000013          	nop
    134a:	00000013          	nop
    134e:	00000013          	nop
    1352:	00000013          	nop
    1356:	00000013          	nop
    135a:	00000013          	nop
    135e:	00000013          	nop
    1362:	00000013          	nop
    1366:	00000013          	nop
    136a:	00000013          	nop
    136e:	00000013          	nop
    1372:	00000013          	nop
    1376:	00000013          	nop
    137a:	00000013          	nop
    137e:	00000013          	nop
    1382:	00000013          	nop
    1386:	00000013          	nop
    138a:	00000013          	nop
    138e:	00000013          	nop
    1392:	00000013          	nop
    1396:	00000013          	nop
    139a:	00000013          	nop
    139e:	00000013          	nop
    13a2:	00000013          	nop
    13a6:	00000013          	nop
    13aa:	00000013          	nop
    13ae:	00000013          	nop
    13b2:	00000013          	nop
    13b6:	00000013          	nop
    13ba:	00000013          	nop
    13be:	00000013          	nop
    13c2:	00000013          	nop
    13c6:	00000013          	nop
    13ca:	00000013          	nop
    13ce:	00000013          	nop
    13d2:	00000013          	nop
    13d6:	00000013          	nop
    13da:	00000013          	nop
    13de:	00000013          	nop
    13e2:	00000013          	nop
    13e6:	00000013          	nop
    13ea:	00000013          	nop
    13ee:	00000013          	nop
    13f2:	00000013          	nop
    13f6:	00000013          	nop
    13fa:	00000013          	nop
    13fe:	00000013          	nop
    1402:	00000013          	nop
    1406:	00000013          	nop
    140a:	00000013          	nop
    140e:	00000013          	nop
    1412:	00000013          	nop
    1416:	00000013          	nop
    141a:	00000013          	nop
    141e:	00000013          	nop
    1422:	00000013          	nop
    1426:	00000013          	nop
    142a:	00000013          	nop
    142e:	00000013          	nop
    1432:	00000013          	nop
    1436:	00000013          	nop
    143a:	00000013          	nop
    143e:	00000013          	nop
    1442:	00000013          	nop
    1446:	00000013          	nop
    144a:	00000013          	nop
    144e:	00000013          	nop
    1452:	00000013          	nop
    1456:	00000013          	nop
    145a:	00000013          	nop
    145e:	00000013          	nop
    1462:	00000013          	nop
    1466:	00000013          	nop
    146a:	00000013          	nop
    146e:	00000013          	nop
    1472:	00000013          	nop
    1476:	00000013          	nop
    147a:	00000013          	nop
    147e:	00000013          	nop
    1482:	00000013          	nop
    1486:	00000013          	nop
    148a:	00000013          	nop
    148e:	00000013          	nop
    1492:	00000013          	nop
    1496:	00000013          	nop
    149a:	00000013          	nop
    149e:	00000013          	nop
    14a2:	00000013          	nop
    14a6:	00000013          	nop
    14aa:	00000013          	nop
    14ae:	00000013          	nop
    14b2:	00000013          	nop
    14b6:	00000013          	nop
    14ba:	00000013          	nop
    14be:	00000013          	nop
    14c2:	00000013          	nop
    14c6:	00000013          	nop
    14ca:	00000013          	nop
    14ce:	00000013          	nop
    14d2:	00000013          	nop
    14d6:	00000013          	nop
    14da:	00000013          	nop
    14de:	00000013          	nop
    14e2:	00000013          	nop
    14e6:	00000013          	nop
    14ea:	00000013          	nop
    14ee:	00000013          	nop
    14f2:	00000013          	nop
    14f6:	00000013          	nop
    14fa:	00000013          	nop
    14fe:	00000013          	nop
    1502:	00000013          	nop
    1506:	00000013          	nop
    150a:	00000013          	nop
    150e:	00000013          	nop
    1512:	00000013          	nop
    1516:	00000013          	nop
    151a:	00000013          	nop
    151e:	00000013          	nop
    1522:	00000013          	nop
    1526:	00000013          	nop
    152a:	00000013          	nop
    152e:	00000013          	nop
    1532:	00000013          	nop
    1536:	00000013          	nop
    153a:	00000013          	nop
    153e:	00000013          	nop
    1542:	00000013          	nop
    1546:	00000013          	nop
    154a:	00000013          	nop
    154e:	00000013          	nop
    1552:	00000013          	nop
    1556:	00000013          	nop
    155a:	00000013          	nop
    155e:	00000013          	nop
    1562:	00000013          	nop
    1566:	00000013          	nop
    156a:	00000013          	nop
    156e:	00000013          	nop
    1572:	00000013          	nop
    1576:	00000013          	nop
    157a:	00000013          	nop
    157e:	00000013          	nop
    1582:	00000013          	nop
    1586:	00000013          	nop
    158a:	00000013          	nop
    158e:	00000013          	nop
    1592:	00000013          	nop
    1596:	00000013          	nop
    159a:	00000013          	nop
    159e:	00000013          	nop
    15a2:	00000013          	nop
    15a6:	00000013          	nop
    15aa:	00000013          	nop
    15ae:	00000013          	nop
    15b2:	00000013          	nop
    15b6:	00000013          	nop
    15ba:	00000013          	nop
    15be:	00000013          	nop
    15c2:	00000013          	nop
    15c6:	00000013          	nop
    15ca:	00000013          	nop
    15ce:	00000013          	nop
    15d2:	00000013          	nop
    15d6:	00000013          	nop
    15da:	00000013          	nop
    15de:	00000013          	nop
    15e2:	00000013          	nop
    15e6:	00000013          	nop
    15ea:	00000013          	nop
    15ee:	00000013          	nop
    15f2:	00000013          	nop
    15f6:	00000013          	nop
    15fa:	00000013          	nop
    15fe:	00000013          	nop
    1602:	00000013          	nop
    1606:	00000013          	nop
    160a:	00000013          	nop
    160e:	00000013          	nop
    1612:	00000013          	nop
    1616:	00000013          	nop
    161a:	00000013          	nop
    161e:	00000013          	nop
    1622:	00000013          	nop
    1626:	00000013          	nop
    162a:	00000013          	nop
    162e:	00000013          	nop
    1632:	00000013          	nop
    1636:	00000013          	nop
    163a:	00000013          	nop
    163e:	00000013          	nop
    1642:	00000013          	nop
    1646:	00000013          	nop
    164a:	00000013          	nop
    164e:	00000013          	nop
    1652:	00000013          	nop
    1656:	00000013          	nop
    165a:	00000013          	nop
    165e:	00000013          	nop
    1662:	00000013          	nop
    1666:	00000013          	nop
    166a:	00000013          	nop
    166e:	00000013          	nop
    1672:	00000013          	nop
    1676:	00000013          	nop
    167a:	00000013          	nop
    167e:	00000013          	nop
    1682:	00000013          	nop
    1686:	00000013          	nop
    168a:	00000013          	nop
    168e:	00000013          	nop
    1692:	00000013          	nop
    1696:	00000013          	nop
    169a:	00000013          	nop
    169e:	00000013          	nop
    16a2:	00000013          	nop
    16a6:	00000013          	nop
    16aa:	00000013          	nop
    16ae:	00000013          	nop
    16b2:	00000013          	nop
    16b6:	00000013          	nop
    16ba:	00000013          	nop
    16be:	00000013          	nop
    16c2:	00000013          	nop
    16c6:	00000013          	nop
    16ca:	00000013          	nop
    16ce:	00000013          	nop
    16d2:	00000013          	nop
    16d6:	00000013          	nop
    16da:	00000013          	nop
    16de:	00000013          	nop
    16e2:	00000013          	nop
    16e6:	00000013          	nop
    16ea:	00000013          	nop
    16ee:	00000013          	nop
    16f2:	00000013          	nop
    16f6:	00000013          	nop
    16fa:	00000013          	nop
    16fe:	00000013          	nop
    1702:	00000013          	nop
    1706:	00000013          	nop
    170a:	00000013          	nop
    170e:	00000013          	nop
    1712:	00000013          	nop
    1716:	00000013          	nop
    171a:	00000013          	nop
    171e:	00000013          	nop
    1722:	00000013          	nop
    1726:	00000013          	nop
    172a:	00000013          	nop
    172e:	00000013          	nop
    1732:	00000013          	nop
    1736:	00000013          	nop
    173a:	00000013          	nop
    173e:	00000013          	nop
    1742:	00000013          	nop
    1746:	00000013          	nop
    174a:	00000013          	nop
    174e:	00000013          	nop
    1752:	00000013          	nop
    1756:	00000013          	nop
    175a:	00000013          	nop
    175e:	00000013          	nop
    1762:	00000013          	nop
    1766:	00000013          	nop
    176a:	00000013          	nop
    176e:	00000013          	nop
    1772:	00000013          	nop
    1776:	00000013          	nop
    177a:	00000013          	nop
    177e:	00000013          	nop
    1782:	00000013          	nop
    1786:	00000013          	nop
    178a:	00000013          	nop
    178e:	00000013          	nop
    1792:	00000013          	nop
    1796:	00000013          	nop
    179a:	00000013          	nop
    179e:	00000013          	nop
    17a2:	00000013          	nop
    17a6:	00000013          	nop
    17aa:	00000013          	nop
    17ae:	00000013          	nop
    17b2:	00000013          	nop
    17b6:	00000013          	nop
    17ba:	00000013          	nop
    17be:	00000013          	nop
    17c2:	00000013          	nop
    17c6:	00000013          	nop
    17ca:	00000013          	nop
    17ce:	00000013          	nop
    17d2:	00000013          	nop
    17d6:	00000013          	nop
    17da:	00000013          	nop
    17de:	00000013          	nop
    17e2:	00000013          	nop
    17e6:	00000013          	nop
    17ea:	00000013          	nop
    17ee:	00000013          	nop
    17f2:	00000013          	nop
    17f6:	00000013          	nop
    17fa:	00000013          	nop
    17fe:	00000013          	nop
    1802:	00000013          	nop
    1806:	00000013          	nop
    180a:	00000013          	nop
    180e:	00000013          	nop
    1812:	00000013          	nop
    1816:	00000013          	nop
    181a:	00000013          	nop
    181e:	00000013          	nop
    1822:	00000013          	nop
    1826:	00000013          	nop
    182a:	00000013          	nop
    182e:	00000013          	nop
    1832:	00000013          	nop
    1836:	00000013          	nop
    183a:	00000013          	nop
    183e:	00000013          	nop
    1842:	00000013          	nop
    1846:	00000013          	nop
    184a:	00000013          	nop
    184e:	00000013          	nop
    1852:	00000013          	nop
    1856:	00000013          	nop
    185a:	00000013          	nop
    185e:	00000013          	nop
    1862:	00000013          	nop
    1866:	00000013          	nop
    186a:	00000013          	nop
    186e:	00000013          	nop
    1872:	00000013          	nop
    1876:	00000013          	nop
    187a:	00000013          	nop
    187e:	00000013          	nop
    1882:	00000013          	nop
    1886:	00000013          	nop
    188a:	00000013          	nop
    188e:	00000013          	nop
    1892:	00000013          	nop
    1896:	00000013          	nop
    189a:	00000013          	nop
    189e:	00000013          	nop
    18a2:	00000013          	nop
    18a6:	00000013          	nop
    18aa:	00000013          	nop
    18ae:	00000013          	nop
    18b2:	00000013          	nop
    18b6:	00000013          	nop
    18ba:	00000013          	nop
    18be:	00000013          	nop
    18c2:	00000013          	nop
    18c6:	00000013          	nop
    18ca:	00000013          	nop
    18ce:	00000013          	nop
    18d2:	00000013          	nop
    18d6:	00000013          	nop
    18da:	00000013          	nop
    18de:	00000013          	nop
    18e2:	00000013          	nop
    18e6:	00000013          	nop
    18ea:	00000013          	nop
    18ee:	00000013          	nop
    18f2:	00000013          	nop
    18f6:	00000013          	nop
    18fa:	00000013          	nop
    18fe:	00000013          	nop
    1902:	00000013          	nop
    1906:	00000013          	nop
    190a:	00000013          	nop
    190e:	00000013          	nop
    1912:	00000013          	nop
    1916:	00000013          	nop
    191a:	00000013          	nop
    191e:	00000013          	nop
    1922:	00000013          	nop
    1926:	00000013          	nop
    192a:	00000013          	nop
    192e:	00000013          	nop
    1932:	00000013          	nop
    1936:	00000013          	nop
    193a:	00000013          	nop
    193e:	00000013          	nop
    1942:	00000013          	nop
    1946:	00000013          	nop
    194a:	00000013          	nop
    194e:	00000013          	nop
    1952:	00000013          	nop
    1956:	00000013          	nop
    195a:	00000013          	nop
    195e:	00000013          	nop
    1962:	00000013          	nop
    1966:	00000013          	nop
    196a:	00000013          	nop
    196e:	00000013          	nop
    1972:	00000013          	nop
    1976:	00000013          	nop
    197a:	00000013          	nop
    197e:	00000013          	nop
    1982:	00000013          	nop
    1986:	00000013          	nop
    198a:	00000013          	nop
    198e:	00000013          	nop
    1992:	00000013          	nop
    1996:	00000013          	nop
    199a:	00000013          	nop
    199e:	00000013          	nop
    19a2:	00000013          	nop
    19a6:	00000013          	nop
    19aa:	00000013          	nop
    19ae:	00000013          	nop
    19b2:	00000013          	nop
    19b6:	00000013          	nop
    19ba:	00000013          	nop
    19be:	00000013          	nop
    19c2:	00000013          	nop
    19c6:	00000013          	nop
    19ca:	00000013          	nop
    19ce:	00000013          	nop
    19d2:	00000013          	nop
    19d6:	00000013          	nop
    19da:	00000013          	nop
    19de:	00000013          	nop
    19e2:	00000013          	nop
    19e6:	00000013          	nop
    19ea:	00000013          	nop
    19ee:	00000013          	nop
    19f2:	00000013          	nop
    19f6:	00000013          	nop
    19fa:	00000013          	nop
    19fe:	00000013          	nop
    1a02:	00000013          	nop
    1a06:	00000013          	nop
    1a0a:	00000013          	nop
    1a0e:	00000013          	nop
    1a12:	00000013          	nop
    1a16:	00000013          	nop
    1a1a:	00000013          	nop
    1a1e:	00000013          	nop
    1a22:	00000013          	nop
    1a26:	00000013          	nop
    1a2a:	00000013          	nop
    1a2e:	00000013          	nop
    1a32:	00000013          	nop
    1a36:	00000013          	nop
    1a3a:	00000013          	nop
    1a3e:	00000013          	nop
    1a42:	00000013          	nop
    1a46:	00000013          	nop
    1a4a:	00000013          	nop
    1a4e:	00000013          	nop
    1a52:	00000013          	nop
    1a56:	00000013          	nop
    1a5a:	00000013          	nop
    1a5e:	00000013          	nop
    1a62:	00000013          	nop
    1a66:	00000013          	nop
    1a6a:	00000013          	nop
    1a6e:	00000013          	nop
    1a72:	00000013          	nop
    1a76:	00000013          	nop
    1a7a:	00000013          	nop
    1a7e:	00000013          	nop
    1a82:	00000013          	nop
    1a86:	00000013          	nop
    1a8a:	00000013          	nop
    1a8e:	00000013          	nop
    1a92:	00000013          	nop
    1a96:	00000013          	nop
    1a9a:	00000013          	nop
    1a9e:	00000013          	nop
    1aa2:	00000013          	nop
    1aa6:	00000013          	nop
    1aaa:	00000013          	nop
    1aae:	00000013          	nop
    1ab2:	00000013          	nop
    1ab6:	00000013          	nop
    1aba:	00000013          	nop
    1abe:	00000013          	nop
    1ac2:	00000013          	nop
    1ac6:	00000013          	nop
    1aca:	00000013          	nop
    1ace:	00000013          	nop
    1ad2:	00000013          	nop
    1ad6:	00000013          	nop
    1ada:	00000013          	nop
    1ade:	00000013          	nop
    1ae2:	00000013          	nop
    1ae6:	00000013          	nop
    1aea:	00000013          	nop
    1aee:	00000013          	nop
    1af2:	00000013          	nop
    1af6:	00000013          	nop
    1afa:	00000013          	nop
    1afe:	00000013          	nop
    1b02:	00000013          	nop
    1b06:	00000013          	nop
    1b0a:	00000013          	nop
    1b0e:	00000013          	nop
    1b12:	00000013          	nop
    1b16:	00000013          	nop
    1b1a:	00000013          	nop
    1b1e:	00000013          	nop
    1b22:	00000013          	nop
    1b26:	00000013          	nop
    1b2a:	00000013          	nop
    1b2e:	00000013          	nop
    1b32:	00000013          	nop
    1b36:	00000013          	nop
    1b3a:	00000013          	nop
    1b3e:	00000013          	nop
    1b42:	00000013          	nop
    1b46:	00000013          	nop
    1b4a:	00000013          	nop
    1b4e:	00000013          	nop
    1b52:	00000013          	nop
    1b56:	00000013          	nop
    1b5a:	00000013          	nop
    1b5e:	00000013          	nop
    1b62:	00000013          	nop
    1b66:	00000013          	nop
    1b6a:	00000013          	nop
    1b6e:	00000013          	nop
    1b72:	00000013          	nop
    1b76:	00000013          	nop
    1b7a:	00000013          	nop
    1b7e:	00000013          	nop
    1b82:	00000013          	nop
    1b86:	00000013          	nop
    1b8a:	00000013          	nop
    1b8e:	00000013          	nop
    1b92:	00000013          	nop
    1b96:	00000013          	nop
    1b9a:	00000013          	nop
    1b9e:	00000013          	nop
    1ba2:	00000013          	nop
    1ba6:	00000013          	nop
    1baa:	00000013          	nop
    1bae:	00000013          	nop
    1bb2:	00000013          	nop
    1bb6:	00000013          	nop
    1bba:	00000013          	nop
    1bbe:	00000013          	nop
    1bc2:	00000013          	nop
    1bc6:	00000013          	nop
    1bca:	00000013          	nop
    1bce:	00000013          	nop
    1bd2:	00000013          	nop
    1bd6:	00000013          	nop
    1bda:	00000013          	nop
    1bde:	00000013          	nop
    1be2:	00000013          	nop
    1be6:	00000013          	nop
    1bea:	00000013          	nop
    1bee:	00000013          	nop
    1bf2:	00000013          	nop
    1bf6:	00000013          	nop
    1bfa:	00000013          	nop
    1bfe:	00000013          	nop
    1c02:	00000013          	nop
    1c06:	00000013          	nop
    1c0a:	00000013          	nop
    1c0e:	00000013          	nop
    1c12:	00000013          	nop
    1c16:	00000013          	nop
    1c1a:	00000013          	nop
    1c1e:	00000013          	nop
    1c22:	00000013          	nop
    1c26:	00000013          	nop
    1c2a:	00000013          	nop
    1c2e:	00000013          	nop
    1c32:	00000013          	nop
    1c36:	00000013          	nop
    1c3a:	00000013          	nop
    1c3e:	00000013          	nop
    1c42:	00000013          	nop
    1c46:	00000013          	nop
    1c4a:	00000013          	nop
    1c4e:	00000013          	nop
    1c52:	00000013          	nop
    1c56:	00000013          	nop
    1c5a:	00000013          	nop
    1c5e:	00000013          	nop
    1c62:	00000013          	nop
    1c66:	00000013          	nop
    1c6a:	00000013          	nop
    1c6e:	00000013          	nop
    1c72:	00000013          	nop
    1c76:	00000013          	nop
    1c7a:	00000013          	nop
    1c7e:	00000013          	nop
    1c82:	00000013          	nop
    1c86:	00000013          	nop
    1c8a:	00000013          	nop
    1c8e:	00000013          	nop
    1c92:	00000013          	nop
    1c96:	00000013          	nop
    1c9a:	00000013          	nop
    1c9e:	00000013          	nop
    1ca2:	00000013          	nop
    1ca6:	00000013          	nop
    1caa:	00000013          	nop
    1cae:	00000013          	nop
    1cb2:	00000013          	nop
    1cb6:	00000013          	nop
    1cba:	00000013          	nop
    1cbe:	00000013          	nop
    1cc2:	00000013          	nop
    1cc6:	00000013          	nop
    1cca:	00000013          	nop
    1cce:	00000013          	nop
    1cd2:	00000013          	nop
    1cd6:	00000013          	nop
    1cda:	00000013          	nop
    1cde:	00000013          	nop
    1ce2:	00000013          	nop
    1ce6:	00000013          	nop
    1cea:	00000013          	nop
    1cee:	00000013          	nop
    1cf2:	00000013          	nop
    1cf6:	00000013          	nop
    1cfa:	00000013          	nop
    1cfe:	00000013          	nop
    1d02:	00000013          	nop
    1d06:	00000013          	nop
    1d0a:	00000013          	nop
    1d0e:	00000013          	nop
    1d12:	00000013          	nop
    1d16:	00000013          	nop
    1d1a:	00000013          	nop
    1d1e:	00000013          	nop
    1d22:	00000013          	nop
    1d26:	00000013          	nop
    1d2a:	00000013          	nop
    1d2e:	00000013          	nop
    1d32:	00000013          	nop
    1d36:	00000013          	nop
    1d3a:	00000013          	nop
    1d3e:	00000013          	nop
    1d42:	00000013          	nop
    1d46:	00000013          	nop
    1d4a:	00000013          	nop
    1d4e:	00000013          	nop
    1d52:	00000013          	nop
    1d56:	00000013          	nop
    1d5a:	00000013          	nop
    1d5e:	00000013          	nop
    1d62:	00000013          	nop
    1d66:	00000013          	nop
    1d6a:	00000013          	nop
    1d6e:	00000013          	nop
    1d72:	00000013          	nop
    1d76:	00000013          	nop
    1d7a:	00000013          	nop
    1d7e:	00000013          	nop
    1d82:	00000013          	nop
    1d86:	00000013          	nop
    1d8a:	00000013          	nop
    1d8e:	00000013          	nop
    1d92:	00000013          	nop
    1d96:	00000013          	nop
    1d9a:	00000013          	nop
    1d9e:	00000013          	nop
    1da2:	00000013          	nop
    1da6:	00000013          	nop
    1daa:	00000013          	nop
    1dae:	00000013          	nop
    1db2:	00000013          	nop
    1db6:	00000013          	nop
    1dba:	00000013          	nop
    1dbe:	00000013          	nop
    1dc2:	00000013          	nop
    1dc6:	00000013          	nop
    1dca:	00000013          	nop
    1dce:	00000013          	nop
    1dd2:	00000013          	nop
    1dd6:	00000013          	nop
    1dda:	00000013          	nop
    1dde:	00000013          	nop
    1de2:	00000013          	nop
    1de6:	00000013          	nop
    1dea:	00000013          	nop
    1dee:	00000013          	nop
    1df2:	00000013          	nop
    1df6:	00000013          	nop
    1dfa:	00000013          	nop
    1dfe:	00000013          	nop
    1e02:	00000013          	nop
    1e06:	00000013          	nop
    1e0a:	00000013          	nop
    1e0e:	00000013          	nop
    1e12:	00000013          	nop
    1e16:	00000013          	nop
    1e1a:	00000013          	nop
    1e1e:	00000013          	nop
    1e22:	00000013          	nop
    1e26:	00000013          	nop
    1e2a:	00000013          	nop
    1e2e:	00000013          	nop
    1e32:	00000013          	nop
    1e36:	00000013          	nop
    1e3a:	00000013          	nop
    1e3e:	00000013          	nop
    1e42:	00000013          	nop
    1e46:	00000013          	nop
    1e4a:	00000013          	nop
    1e4e:	00000013          	nop
    1e52:	00000013          	nop
    1e56:	00000013          	nop
    1e5a:	00000013          	nop
    1e5e:	00000013          	nop
    1e62:	00000013          	nop
    1e66:	00000013          	nop
    1e6a:	00000013          	nop
    1e6e:	00000013          	nop
    1e72:	00000013          	nop
    1e76:	00000013          	nop
    1e7a:	00000013          	nop
    1e7e:	00000013          	nop
    1e82:	00000013          	nop
    1e86:	00000013          	nop
    1e8a:	00000013          	nop
    1e8e:	00000013          	nop
    1e92:	00000013          	nop
    1e96:	00000013          	nop
    1e9a:	00000013          	nop
    1e9e:	00000013          	nop
    1ea2:	00000013          	nop
    1ea6:	00000013          	nop
    1eaa:	00000013          	nop
    1eae:	00000013          	nop
    1eb2:	00000013          	nop
    1eb6:	00000013          	nop
    1eba:	00000013          	nop
    1ebe:	00000013          	nop
    1ec2:	00000013          	nop
    1ec6:	00000013          	nop
    1eca:	00000013          	nop
    1ece:	00000013          	nop
    1ed2:	00000013          	nop
    1ed6:	00000013          	nop
    1eda:	00000013          	nop
    1ede:	00000013          	nop
    1ee2:	00000013          	nop
    1ee6:	00000013          	nop
    1eea:	00000013          	nop
    1eee:	00000013          	nop
    1ef2:	00000013          	nop
    1ef6:	00000013          	nop
    1efa:	00000013          	nop
    1efe:	00000013          	nop
    1f02:	00000013          	nop
    1f06:	00000013          	nop
    1f0a:	00000013          	nop
    1f0e:	00000013          	nop
    1f12:	00000013          	nop
    1f16:	00000013          	nop
    1f1a:	00000013          	nop
    1f1e:	00000013          	nop
    1f22:	00000013          	nop
    1f26:	00000013          	nop
    1f2a:	00000013          	nop
    1f2e:	00000013          	nop
    1f32:	00000013          	nop
    1f36:	00000013          	nop
    1f3a:	00000013          	nop
    1f3e:	00000013          	nop
    1f42:	00000013          	nop
    1f46:	00000013          	nop
    1f4a:	00000013          	nop
    1f4e:	00000013          	nop
    1f52:	00000013          	nop
    1f56:	00000013          	nop
    1f5a:	00000013          	nop
    1f5e:	00000013          	nop
    1f62:	00000013          	nop
    1f66:	00000013          	nop
    1f6a:	00000013          	nop
    1f6e:	00000013          	nop
    1f72:	00000013          	nop
    1f76:	00000013          	nop
    1f7a:	00000013          	nop
    1f7e:	00000013          	nop
    1f82:	00000013          	nop
    1f86:	00000013          	nop
    1f8a:	00000013          	nop
    1f8e:	00000013          	nop
    1f92:	00000013          	nop
    1f96:	00000013          	nop
    1f9a:	00000013          	nop
    1f9e:	00000013          	nop
    1fa2:	00000013          	nop
    1fa6:	00000013          	nop
    1faa:	00000013          	nop
    1fae:	00000013          	nop
    1fb2:	00000013          	nop
    1fb6:	00000013          	nop
    1fba:	00000013          	nop
    1fbe:	00000013          	nop
    1fc2:	00000013          	nop
    1fc6:	00000013          	nop
    1fca:	00000013          	nop
    1fce:	00000013          	nop
    1fd2:	00000013          	nop
    1fd6:	00000013          	nop
    1fda:	00000013          	nop
    1fde:	00000013          	nop
    1fe2:	00000013          	nop
    1fe6:	00000013          	nop
    1fea:	00000013          	nop
    1fee:	00000013          	nop
    1ff2:	00000013          	nop
    1ff6:	00000013          	nop
    1ffa:	00000013          	nop

00001ffe <_start>:
    1ffe:	95020037          	lui	zero,0x95020
    2002:	b5600013          	li	zero,-1194
    2006:	83b850b7          	lui	ra,0x83b85
    200a:	53708093          	addi	ra,ra,1335 # 83b85537 <_kernel_instr_end+0x83b7869b>
    200e:	f5a53137          	lui	sp,0xf5a53
    2012:	28410113          	addi	sp,sp,644 # f5a53284 <_kernel_instr_end+0xf5a463e8>
    2016:	41ad                	li	gp,11
    2018:	fabe1237          	lui	tp,0xfabe1
    201c:	45c20213          	addi	tp,tp,1116 # fabe145c <_kernel_instr_end+0xfabd45c0>
    2020:	800002b7          	lui	t0,0x80000
    2024:	80000337          	lui	t1,0x80000
    2028:	800003b7          	lui	t2,0x80000
    202c:	441d                	li	s0,7
    202e:	f281e4b7          	lui	s1,0xf281e
    2032:	1c848493          	addi	s1,s1,456 # f281e1c8 <_kernel_instr_end+0xf281132c>
    2036:	fef46537          	lui	a0,0xfef46
    203a:	edb50513          	addi	a0,a0,-293 # fef45edb <_kernel_instr_end+0xfef3903f>
    203e:	4581                	li	a1,0
    2040:	4601                	li	a2,0
    2042:	3221c6b7          	lui	a3,0x3221c
    2046:	cec68693          	addi	a3,a3,-788 # 3221bcec <_kernel_instr_end+0x3220ee50>
    204a:	80000737          	lui	a4,0x80000
    204e:	47ad                	li	a5,11
    2050:	482d                	li	a6,11
    2052:	4899                	li	a7,6
    2054:	f0226937          	lui	s2,0xf0226
    2058:	59290913          	addi	s2,s2,1426 # f0226592 <_kernel_instr_end+0xf02196f6>
    205c:	4981                	li	s3,0
    205e:	c8f08a37          	lui	s4,0xc8f08
    2062:	371a0a13          	addi	s4,s4,881 # c8f08371 <_kernel_instr_end+0xc8efb4d5>
    2066:	164eaab7          	lui	s5,0x164ea
    206a:	fa8a8a93          	addi	s5,s5,-88 # 164e9fa8 <_kernel_instr_end+0x164dd10c>
    206e:	4b01                	li	s6,0
    2070:	fe715bb7          	lui	s7,0xfe715
    2074:	307b8b93          	addi	s7,s7,775 # fe715307 <_kernel_instr_end+0xfe70846b>
    2078:	4c01                	li	s8,0
    207a:	4c81                	li	s9,0
    207c:	4d21                	li	s10,8
    207e:	4d81                	li	s11,0
    2080:	f3d68e37          	lui	t3,0xf3d68
    2084:	501e0e13          	addi	t3,t3,1281 # f3d68501 <_kernel_instr_end+0xf3d5b665>
    2088:	dce24eb7          	lui	t4,0xdce24
    208c:	6dee8e93          	addi	t4,t4,1758 # dce246de <_kernel_instr_end+0xdce17842>
    2090:	f3418f37          	lui	t5,0xf3418
    2094:	c72f0f13          	addi	t5,t5,-910 # f3417c72 <_kernel_instr_end+0xf340add6>
    2098:	4f9d                	li	t6,7
    209a:	400015b7          	lui	a1,0x40001
    209e:	10458593          	addi	a1,a1,260 # 40001104 <_kernel_instr_end+0x3fff4268>
    20a2:	30159073          	csrw	misa,a1

000020a6 <kernel_sp>:
    20a6:	00000717          	auipc	a4,0x0
    20aa:	00070713          	mv	a4,a4

000020ae <trap_vec_init>:
    20ae:	00000597          	auipc	a1,0x0
    20b2:	00058593          	mv	a1,a1
    20b6:	0015e593          	ori	a1,a1,1
    20ba:	30559073          	csrw	mtvec,a1

000020be <mepc_setup>:
    20be:	00000597          	auipc	a1,0x0
    20c2:	00058593          	mv	a1,a1
    20c6:	34159073          	csrw	mepc,a1
    20ca:	7ef0706f          	j	a0b8 <init_machine_mode>

000020ce <_init>:
    20ce:	00000d97          	auipc	s11,0x0
    20d2:	000d8d93          	mv	s11,s11

000020d6 <_main>:
    20d6:	802d                	srli	s0,s0,0xb
    20d8:	005d9093          	slli	ra,s11,0x5
    20dc:	41598833          	sub	a6,s3,s5
    20e0:	bb39b2b7          	lui	t0,0xbb39b
    20e4:	00c81313          	slli	t1,a6,0xc
    20e8:	684d                	lui	a6,0x13
    20ea:	2f896d13          	ori	s10,s2,760
    20ee:	d6c3ac17          	auipc	s8,0xd6c3a
    20f2:	5efd                	li	t4,-1
    20f4:	01129d13          	slli	s10,t0,0x11
    20f8:	001c50b3          	srl	ra,s8,ra
    20fc:	8c8d                	sub	s1,s1,a1
    20fe:	038baeb3          	mulhsu	t4,s7,s8
    2102:	0001                	nop
    2104:	6161                	addi	sp,sp,80
    2106:	00a41c33          	sll	s8,s0,a0
    210a:	01781b13          	slli	s6,a6,0x17
    210e:	ede92613          	slti	a2,s2,-290
    2112:	2dca8a93          	addi	s5,s5,732
    2116:	40d2d093          	srai	ra,t0,0xd
    211a:	f1c37693          	andi	a3,t1,-228
    211e:	f2072d13          	slti	s10,a4,-224
    2122:	2de83893          	sltiu	a7,a6,734
    2126:	0265f4b3          	remu	s1,a1,t1
    212a:	852e                	mv	a0,a1
    212c:	00139113          	slli	sp,t2,0x1
    2130:	98fd                	andi	s1,s1,-1
    2132:	11a34293          	xori	t0,t1,282
    2136:	0001                	nop
    2138:	16bc3c93          	sltiu	s9,s8,363
    213c:	527d                	li	tp,-1
    213e:	0001                	nop
    2140:	8fed                	and	a5,a5,a1
    2142:	8cdd                	or	s1,s1,a5
    2144:	0255e1b3          	rem	gp,a1,t0
    2148:	0001                	nop
    214a:	8469                	srai	s0,s0,0x1a
    214c:	95ea                	add	a1,a1,s10
    214e:	8545                	srai	a0,a0,0x11
    2150:	e2793e13          	sltiu	t3,s2,-473
    2154:	da163e93          	sltiu	t4,a2,-607
    2158:	416858b3          	sra	a7,a6,s6
    215c:	01af05b3          	add	a1,t5,s10
    2160:	44f1                	li	s1,28
    2162:	6665                	lui	a2,0x19
    2164:	0175b633          	sltu	a2,a1,s7
    2168:	866d                	srai	a2,a2,0x1b
    216a:	fc086e13          	ori	t3,a6,-64
    216e:	02ecc933          	div	s2,s9,a4
    2172:	8cd5                	or	s1,s1,a3
    2174:	c9d6a493          	slti	s1,a3,-867
    2178:	33856e13          	ori	t3,a0,824
    217c:	f1076d13          	ori	s10,a4,-240
    2180:	8e28fd37          	lui	s10,0x8e28f
    2184:	020202b3          	mul	t0,tp,zero
    2188:	41f5d4b3          	sra	s1,a1,t6
    218c:	022cd6b3          	divu	a3,s9,sp
    2190:	40e90433          	sub	s0,s2,a4
    2194:	0a12                	slli	s4,s4,0x4
    2196:	946e                	add	s0,s0,s11
    2198:	00770833          	add	a6,a4,t2
    219c:	334afe13          	andi	t3,s5,820
    21a0:	8d79                	and	a0,a0,a4
    21a2:	013671b3          	and	gp,a2,s3
    21a6:	00d2                	slli	ra,ra,0x14
    21a8:	404c5a93          	srai	s5,s8,0x4
    21ac:	8c45                	or	s0,s0,s1
    21ae:	01bda233          	slt	tp,s11,s11
    21b2:	02147f33          	remu	t5,s0,ra
    21b6:	2066c593          	xori	a1,a3,518
    21ba:	03d7eb33          	rem	s6,a5,t4
    21be:	9f6ec697          	auipc	a3,0x9f6ec
    21c2:	00d0d6b3          	srl	a3,ra,a3
    21c6:	00652d33          	slt	s10,a0,t1
    21ca:	03b7f0b3          	remu	ra,a5,s11
    21ce:	01287533          	and	a0,a6,s2
    21d2:	0001                	nop
    21d4:	8d5d                	or	a0,a0,a5
    21d6:	0017ae33          	slt	t3,a5,ra
    21da:	8419                	srai	s0,s0,0x6
    21dc:	8171                	srli	a0,a0,0x1c
    21de:	fbc15cb7          	lui	s9,0xfbc15
    21e2:	388a3313          	sltiu	t1,s4,904
    21e6:	0001                	nop
    21e8:	036478b3          	remu	a7,s0,s6
    21ec:	01adda93          	srli	s5,s11,0x1a
    21f0:	018f3cb3          	sltu	s9,t5,s8
    21f4:	717d                	addi	sp,sp,-16
    21f6:	717d                	addi	sp,sp,-16
    21f8:	d6508793          	addi	a5,ra,-667
    21fc:	997d                	andi	a0,a0,-1
    21fe:	03b96433          	rem	s0,s2,s11
    2202:	01d833b3          	sltu	t2,a6,t4
    2206:	8ca1                	xor	s1,s1,s0
    2208:	41d45813          	srai	a6,s0,0x1d
    220c:	0abccb13          	xori	s6,s9,171
    2210:	00a75833          	srl	a6,a4,a0
    2214:	00bf65b3          	or	a1,t5,a1
    2218:	0998ce93          	xori	t4,a7,153
    221c:	00640033          	add	zero,s0,t1
    2220:	01d84913          	xori	s2,a6,29
    2224:	717d                	addi	sp,sp,-16
    2226:	01d0d533          	srl	a0,ra,t4
    222a:	8565                	srai	a0,a0,0x19
    222c:	8fc9                	or	a5,a5,a0
    222e:	40258433          	sub	s0,a1,sp
    2232:	837e                	mv	t1,t6
    2234:	8ebd                	xor	a3,a3,a5
    2236:	64dd                	lui	s1,0x17
    2238:	013dfbb3          	and	s7,s11,s3
    223c:	00da04b3          	add	s1,s4,a3
    2240:	fcbcf013          	andi	zero,s9,-53
    2244:	6165                	addi	sp,sp,112
    2246:	96b2                	add	a3,a3,a2
    2248:	9beee537          	lui	a0,0x9beee
    224c:	86d9                	srai	a3,a3,0x16
    224e:	02016e33          	rem	t3,sp,zero
    2252:	84a9                	srai	s1,s1,0xa
    2254:	027b7f33          	remu	t5,s6,t2
    2258:	03c37b33          	remu	s6,t1,t3
    225c:	03b948b3          	div	a7,s2,s11
    2260:	4176dbb3          	sra	s7,a3,s7
    2264:	8c45                	or	s0,s0,s1
    2266:	3abb6d13          	ori	s10,s6,939
    226a:	00385d33          	srl	s10,a6,gp
    226e:	01249eb3          	sll	t4,s1,s2
    2272:	038d0fb3          	mul	t6,s10,s8
    2276:	01ea5893          	srli	a7,s4,0x1e
    227a:	000e9913          	slli	s2,t4,0x0
    227e:	3b670593          	addi	a1,a4,950 # 245c <_main+0x386>
    2282:	00279033          	sll	zero,a5,sp
    2286:	024d5533          	divu	a0,s10,tp
    228a:	d2ba0a13          	addi	s4,s4,-725
    228e:	01fe80b3          	add	ra,t4,t6
    2292:	82d5                	srli	a3,a3,0x15
    2294:	cfb98c13          	addi	s8,s3,-773
    2298:	03d610b3          	mulh	ra,a2,t4
    229c:	03b7a2b3          	mulhsu	t0,a5,s11
    22a0:	8c61                	and	s0,s0,s0
    22a2:	075a8293          	addi	t0,s5,117
    22a6:	1c7d                	addi	s8,s8,-1
    22a8:	00af7533          	and	a0,t5,a0
    22ac:	34d14313          	xori	t1,sp,845
    22b0:	6f05                	lui	t5,0x1
    22b2:	017a                	slli	sp,sp,0x1e
    22b4:	611d                	addi	sp,sp,416
    22b6:	034e2533          	mulhsu	a0,t3,s4
    22ba:	3abb61b7          	lui	gp,0x3abb6
    22be:	70447f17          	auipc	t5,0x70447
    22c2:	0001                	nop
    22c4:	00dbca33          	xor	s4,s7,a3
    22c8:	1a7d                	addi	s4,s4,-1
    22ca:	00a64133          	xor	sp,a2,a0
    22ce:	41bf01b3          	sub	gp,t5,s11
    22d2:	40138433          	sub	s0,t2,ra
    22d6:	f8eeb793          	sltiu	a5,t4,-114
    22da:	21fd6913          	ori	s2,s10,543
    22de:	02942fb3          	mulhsu	t6,s0,s1
    22e2:	0131bc33          	sltu	s8,gp,s3
    22e6:	0001                	nop
    22e8:	02a94a33          	div	s4,s2,a0
    22ec:	0241f933          	remu	s2,gp,tp
    22f0:	01e31813          	slli	a6,t1,0x1e
    22f4:	0001                	nop
    22f6:	0001                	nop
    22f8:	6fe9                	lui	t6,0x1a
    22fa:	98fd                	andi	s1,s1,-1
    22fc:	015de633          	or	a2,s11,s5
    2300:	0029d613          	srli	a2,s3,0x2
    2304:	3b4c3013          	sltiu	zero,s8,948
    2308:	6d3d                	lui	s10,0xf
    230a:	16b23893          	sltiu	a7,tp,363
    230e:	014d8bb3          	add	s7,s11,s4
    2312:	02e9f433          	remu	s0,s3,a4
    2316:	38dd6013          	ori	zero,s10,909
    231a:	01c81833          	sll	a6,a6,t3
    231e:	022f5d33          	divu	s10,t5,sp
    2322:	bf577137          	lui	sp,0xbf577
    2326:	84d5                	srai	s1,s1,0x15
    2328:	85a5                	srai	a1,a1,0x9
    232a:	03543e33          	mulhu	t3,s0,s5
    232e:	002bdc93          	srli	s9,s7,0x2
    2332:	0348e933          	rem	s2,a7,s4
    2336:	717d                	addi	sp,sp,-16
    2338:	403fdb13          	srai	s6,t6,0x3
    233c:	02133ab3          	mulhu	s5,t1,ra
    2340:	8c15                	sub	s0,s0,a3
    2342:	010df2b3          	and	t0,s11,a6
    2346:	9bfd                	andi	a5,a5,-1
    2348:	16e0bd13          	sltiu	s10,ra,366
    234c:	000c8833          	add	a6,s9,zero
    2350:	0bc17313          	andi	t1,sp,188
    2354:	8dd1                	or	a1,a1,a2
    2356:	8b56                	mv	s6,s5
    2358:	021595b3          	mulh	a1,a1,ra
    235c:	57fd                	li	a5,-1
    235e:	0362                	slli	t1,t1,0x18
    2360:	8d11                	sub	a0,a0,a2
    2362:	41bad533          	sra	a0,s5,s11
    2366:	00d75b93          	srli	s7,a4,0xd
    236a:	8db9                	xor	a1,a1,a4
    236c:	00d88cb3          	add	s9,a7,a3
    2370:	8e3a                	mv	t3,a4
    2372:	41ead293          	srai	t0,s5,0x1e
    2376:	6f85                	lui	t6,0x1
    2378:	5d7d                	li	s10,-1
    237a:	02d667b3          	rem	a5,a2,a3
    237e:	004d6633          	or	a2,s10,tp
    2382:	03b416b3          	mulh	a3,s0,s11
    2386:	012bcf33          	xor	t5,s7,s2
    238a:	6131                	addi	sp,sp,320
    238c:	8fcd                	or	a5,a5,a1
    238e:	8c39                	xor	s0,s0,a4
    2390:	7fd5f117          	auipc	sp,0x7fd5f
    2394:	40315093          	srai	ra,sp,0x3
    2398:	010de033          	or	zero,s11,a6
    239c:	8ecd                	or	a3,a3,a1
    239e:	0001                	nop
    23a0:	03021333          	mulh	t1,tp,a6
    23a4:	033dad33          	mulhsu	s10,s11,s3
    23a8:	01a122b3          	slt	t0,sp,s10
    23ac:	40e08ab3          	sub	s5,ra,a4
    23b0:	01bec7b3          	xor	a5,t4,s11
    23b4:	03b6f4b3          	remu	s1,a3,s11
    23b8:	00613fb3          	sltu	t6,sp,t1
    23bc:	0001                	nop
    23be:	3dfdf113          	andi	sp,s11,991
    23c2:	00bbe233          	or	tp,s7,a1
    23c6:	8d19                	sub	a0,a0,a4
    23c8:	0104ef33          	or	t5,s1,a6
    23cc:	023752b3          	divu	t0,a4,gp
    23d0:	8e89                	sub	a3,a3,a0
    23d2:	41d35313          	srai	t1,t1,0x1d
    23d6:	ea300f93          	li	t6,-349
    23da:	0082b4b3          	sltu	s1,t0,s0
    23de:	026f6a33          	rem	s4,t5,t1
    23e2:	987d                	andi	s0,s0,-1
    23e4:	02847933          	remu	s2,s0,s0
    23e8:	8e21                	xor	a2,a2,s0
    23ea:	020c8eb3          	mul	t4,s9,zero
    23ee:	0301e8b3          	rem	a7,gp,a6
    23f2:	6425                	lui	s0,0x9
    23f4:	00618ab3          	add	s5,gp,t1
    23f8:	011ad493          	srli	s1,s5,0x11
    23fc:	020d10b3          	mulh	ra,s10,zero
    2400:	03de88b3          	mul	a7,t4,t4
    2404:	0291bf33          	mulhu	t5,gp,s1
    2408:	f41a4a93          	xori	s5,s4,-191
    240c:	6b79                	lui	s6,0x1e
    240e:	01b09633          	sll	a2,ra,s11
    2412:	016f5393          	srli	t2,t5,0x16
    2416:	0e25f813          	andi	a6,a1,226
    241a:	6199                	lui	gp,0x6
    241c:	0001                	nop
    241e:	8e25                	xor	a2,a2,s1
    2420:	8df5                	and	a1,a1,a3
    2422:	019aa833          	slt	a6,s5,s9
    2426:	03c74233          	div	tp,a4,t3
    242a:	026cf533          	remu	a0,s9,t1
    242e:	6171                	addi	sp,sp,336
    2430:	02b8ffb3          	remu	t6,a7,a1
    2434:	0001                	nop
    2436:	53fd                	li	t2,-1
    2438:	8cd5                	or	s1,s1,a3
    243a:	9afd                	andi	a3,a3,-1
    243c:	01115b93          	srli	s7,sp,0x11
    2440:	2cf98093          	addi	ra,s3,719
    2444:	40f5df93          	srai	t6,a1,0xf
    2448:	0094eab3          	or	s5,s1,s1
    244c:	8fa5                	xor	a5,a5,s1
    244e:	262bac93          	slti	s9,s7,610
    2452:	4189                	li	gp,2
    2454:	0174e633          	or	a2,s1,s7
    2458:	1f7d                	addi	t5,t5,-1
    245a:	08d2                	slli	a7,a7,0x14
    245c:	0eb1                	addi	t4,t4,12
    245e:	8e89                	sub	a3,a3,a0
    2460:	326b7b13          	andi	s6,s6,806
    2464:	e990a393          	slti	t2,ra,-359
    2468:	466d                	li	a2,27
    246a:	8542                	mv	a0,a6
    246c:	92f6                	add	t0,t0,t4
    246e:	00aeb4b3          	sltu	s1,t4,a0
    2472:	03922333          	mulhsu	t1,tp,s9
    2476:	61b9                	lui	gp,0xe
    2478:	f9ccab13          	slti	s6,s9,-100
    247c:	00675a33          	srl	s4,a4,t1
    2480:	4073d433          	sra	s0,t2,t2
    2484:	0001                	nop
    2486:	03c0aeb3          	mulhsu	t4,ra,t3
    248a:	02285e33          	divu	t3,a6,sp
    248e:	2042fe13          	andi	t3,t0,516
    2492:	02d035b3          	mulhu	a1,zero,a3
    2496:	04a2                	slli	s1,s1,0x8
    2498:	0342d1b3          	divu	gp,t0,s4
    249c:	167d                	addi	a2,a2,-1
    249e:	402157b3          	sra	a5,sp,sp
    24a2:	829d                	srli	a3,a3,0x7
    24a4:	26918f13          	addi	t5,gp,617 # e269 <_kernel_instr_end+0x13cd>
    24a8:	8dad                	xor	a1,a1,a1
    24aa:	8d79                	and	a0,a0,a4
    24ac:	9136                	add	sp,sp,a3
    24ae:	2ac8fb93          	andi	s7,a7,684
    24b2:	717d                	addi	sp,sp,-16
    24b4:	c7977e13          	andi	t3,a4,-903
    24b8:	b62e5d37          	lui	s10,0xb62e5
    24bc:	8051                	srli	s0,s0,0x14
    24be:	0afd                	addi	s5,s5,31
    24c0:	31a7e493          	ori	s1,a5,794
    24c4:	03a197b3          	mulh	a5,gp,s10
    24c8:	03956d33          	rem	s10,a0,s9
    24cc:	015a3533          	sltu	a0,s4,s5
    24d0:	95b6                	add	a1,a1,a3
    24d2:	402c50b3          	sra	ra,s8,sp
    24d6:	02d6                	slli	t0,t0,0x15
    24d8:	00a76833          	or	a6,a4,a0
    24dc:	8cb5                	xor	s1,s1,a3
    24de:	6151                	addi	sp,sp,272
    24e0:	40f5d133          	sra	sp,a1,a5
    24e4:	017346b3          	xor	a3,t1,s7
    24e8:	03336393          	ori	t2,t1,51
    24ec:	014f5233          	srl	tp,t5,s4
    24f0:	1627fe13          	andi	t3,a5,354
    24f4:	41dcde33          	sra	t3,s9,t4
    24f8:	39976513          	ori	a0,a4,921
    24fc:	f66dcf93          	xori	t6,s11,-154
    2500:	9afd                	andi	a3,a3,-1
    2502:	41e3dc93          	srai	s9,t2,0x1e
    2506:	85e1                	srai	a1,a1,0x18
    2508:	03eef3b3          	remu	t2,t4,t5
    250c:	0277e933          	rem	s2,a5,t2
    2510:	8d59                	or	a0,a0,a4
    2512:	03f13cb3          	mulhu	s9,sp,t6
    2516:	87ed                	srai	a5,a5,0x1b
    2518:	00d89193          	slli	gp,a7,0xd
    251c:	01489493          	slli	s1,a7,0x14
    2520:	001ce133          	or	sp,s9,ra
    2524:	8269                	srli	a2,a2,0x1a
    2526:	03343933          	mulhu	s2,s0,s3
    252a:	717d                	addi	sp,sp,-16
    252c:	8d35                	xor	a0,a0,a3
    252e:	41f58333          	sub	t1,a1,t6
    2532:	0020d5b3          	srl	a1,ra,sp
    2536:	01ddd513          	srli	a0,s11,0x1d
    253a:	01cb1313          	slli	t1,s6,0x1c
    253e:	98fd                	andi	s1,s1,-1
    2540:	717d                	addi	sp,sp,-16
    2542:	dab10c13          	addi	s8,sp,-597 # 7fd6113b <_kernel_instr_end+0x7fd5429f>
    2546:	d3a68513          	addi	a0,a3,-710 # 9f6edef8 <_kernel_instr_end+0x9f6e105c>
    254a:	00251833          	sll	a6,a0,sp
    254e:	0d5a                	slli	s10,s10,0x16
    2550:	03ba7c33          	remu	s8,s4,s11
    2554:	40575513          	srai	a0,a4,0x5
    2558:	03b7df33          	divu	t5,a5,s11
    255c:	0fb2                	slli	t6,t6,0xc
    255e:	8de1                	and	a1,a1,s0
    2560:	337acf13          	xori	t5,s5,823
    2564:	027ba6b3          	mulhsu	a3,s7,t2
    2568:	e03cbfb7          	lui	t6,0xe03cb
    256c:	717d                	addi	sp,sp,-16
    256e:	8565                	srai	a0,a0,0x19
    2570:	00f04d33          	xor	s10,zero,a5
    2574:	587d                	li	a6,-1
    2576:	01e2cbb3          	xor	s7,t0,t5
    257a:	117d                	addi	sp,sp,-1
    257c:	8ad2                	mv	s5,s4
    257e:	03f6c6b3          	div	a3,a3,t6
    2582:	e455cf13          	xori	t5,a1,-443
    2586:	01699c33          	sll	s8,s3,s6
    258a:	02271533          	mulh	a0,a4,sp
    258e:	01171133          	sll	sp,a4,a7
    2592:	8ee9                	and	a3,a3,a0
    2594:	8e6d                	and	a2,a2,a1
    2596:	40f48833          	sub	a6,s1,a5
    259a:	02f9a2b3          	mulhsu	t0,s3,a5
    259e:	8bc1                	andi	a5,a5,16
    25a0:	36ae4193          	xori	gp,t3,874
    25a4:	029ae633          	rem	a2,s5,s1
    25a8:	8dd5                	or	a1,a1,a3
    25aa:	8789                	srai	a5,a5,0x2
    25ac:	0495                	addi	s1,s1,5
    25ae:	00499c13          	slli	s8,s3,0x4
    25b2:	02a02833          	mulhsu	a6,zero,a0
    25b6:	635f2d37          	lui	s10,0x635f2
    25ba:	01210ab3          	add	s5,sp,s2
    25be:	97ba                	add	a5,a5,a4
    25c0:	4036d633          	sra	a2,a3,gp
    25c4:	030e8d33          	mul	s10,t4,a6
    25c8:	0001                	nop
    25ca:	412703b3          	sub	t2,a4,s2
    25ce:	8d4d                	or	a0,a0,a1
    25d0:	01e73bb3          	sltu	s7,a4,t5
    25d4:	404608b3          	sub	a7,a2,tp
    25d8:	8f85                	sub	a5,a5,s1
    25da:	02c671b3          	remu	gp,a2,a2
    25de:	0001                	nop
    25e0:	403e0eb3          	sub	t4,t3,gp
    25e4:	8e39                	xor	a2,a2,a4
    25e6:	039c98b3          	mulh	a7,s9,s9
    25ea:	02e43f33          	mulhu	t5,s0,a4
    25ee:	02361533          	mulh	a0,a2,gp
    25f2:	00a8ca33          	xor	s4,a7,a0
    25f6:	03a9a1b3          	mulhsu	gp,s3,s10
    25fa:	00132233          	slt	tp,t1,ra
    25fe:	414788b3          	sub	a7,a5,s4
    2602:	02bbcbb3          	div	s7,s7,a1
    2606:	41455233          	sra	tp,a0,s4
    260a:	03ea                	slli	t2,t2,0x1a
    260c:	02941bb3          	mulh	s7,s0,s1
    2610:	0001                	nop
    2612:	fac90b93          	addi	s7,s2,-84
    2616:	717d                	addi	sp,sp,-16
    2618:	0001                	nop
    261a:	9f4a                	add	t5,t5,s2
    261c:	02065f33          	divu	t5,a2,zero
    2620:	886d                	andi	s0,s0,27
    2622:	6125                	addi	sp,sp,96
    2624:	02f1d4b3          	divu	s1,gp,a5
    2628:	6109                	addi	sp,sp,128
    262a:	9c62                	add	s8,s8,s8
    262c:	0f2d                	addi	t5,t5,11
    262e:	01f57833          	and	a6,a0,t6
    2632:	717d                	addi	sp,sp,-16
    2634:	6149                	addi	sp,sp,144
    2636:	8a65                	andi	a2,a2,25
    2638:	03535533          	divu	a0,t1,s5
    263c:	e4a92493          	slti	s1,s2,-438
    2640:	00485013          	srli	zero,a6,0x4
    2644:	2e0bcb97          	auipc	s7,0x2e0bc
    2648:	0e7b2497          	auipc	s1,0xe7b2
    264c:	147d                	addi	s0,s0,-1
    264e:	02bfc133          	div	sp,t6,a1
    2652:	0d70a393          	slti	t2,ra,215
    2656:	612d                	addi	sp,sp,224
    2658:	d61d3b13          	sltiu	s6,s10,-671
    265c:	003a9cb3          	sll	s9,s5,gp
    2660:	000c9c33          	sll	s8,s9,zero
    2664:	01ab5e33          	srl	t3,s6,s10
    2668:	0452                	slli	s0,s0,0x14
    266a:	9d57b597          	auipc	a1,0x9d57b
    266e:	52297697          	auipc	a3,0x52297
    2672:	0060bd33          	sltu	s10,ra,t1
    2676:	001fa2b3          	slt	t0,t6,ra
    267a:	8c89                	sub	s1,s1,a0
    267c:	41eede33          	sra	t3,t4,t5
    2680:	010e5493          	srli	s1,t3,0x10
    2684:	4058d193          	srai	gp,a7,0x5
    2688:	08004e13          	xori	t3,zero,128
    268c:	8db5                	xor	a1,a1,a3
    268e:	00dc1f33          	sll	t5,s8,a3
    2692:	00475793          	srli	a5,a4,0x4
    2696:	010ced33          	or	s10,s9,a6
    269a:	004dfb33          	and	s6,s11,tp
    269e:	8916                	mv	s2,t0
    26a0:	9bfd                	andi	a5,a5,-1
    26a2:	8fa1                	xor	a5,a5,s0
    26a4:	23436513          	ori	a0,t1,564
    26a8:	0361d433          	divu	s0,gp,s6
    26ac:	01444fb3          	xor	t6,s0,s4
    26b0:	8e9d                	sub	a3,a3,a5
    26b2:	c2eba693          	slti	a3,s7,-978
    26b6:	f48a2013          	slti	zero,s4,-184
    26ba:	0001                	nop
    26bc:	01b58233          	add	tp,a1,s11
    26c0:	02c77bb3          	remu	s7,a4,a2
    26c4:	8c29                	xor	s0,s0,a0
    26c6:	717d                	addi	sp,sp,-16
    26c8:	07e9                	addi	a5,a5,26
    26ca:	009337b3          	sltu	a5,t1,s1
    26ce:	df91c417          	auipc	s0,0xdf91c
    26d2:	0f55ba93          	sltiu	s5,a1,245
    26d6:	02a96b33          	rem	s6,s2,a0
    26da:	0365b333          	mulhu	t1,a1,s6
    26de:	01170a33          	add	s4,a4,a7
    26e2:	02f824b3          	mulhsu	s1,a6,a5
    26e6:	02803033          	mulhu	zero,zero,s0
    26ea:	8e0d                	sub	a2,a2,a1
    26ec:	00625213          	srli	tp,tp,0x6
    26f0:	8d1d                	sub	a0,a0,a5
    26f2:	537d                	li	t1,-1
    26f4:	01f7aab3          	slt	s5,a5,t6
    26f8:	002d6bb3          	or	s7,s10,sp
    26fc:	0001                	nop
    26fe:	01c07133          	and	sp,zero,t3
    2702:	c1760193          	addi	gp,a2,-1001 # 18c17 <_kernel_instr_end+0xbd7b>
    2706:	93e15eb7          	lui	t4,0x93e15
    270a:	036531b3          	mulhu	gp,a0,s6
    270e:	03fe3b33          	mulhu	s6,t3,t6
    2712:	8d5d                	or	a0,a0,a5
    2714:	3857d617          	auipc	a2,0x3857d
    2718:	9ee6                	add	t4,t4,s9
    271a:	405c52b3          	sra	t0,s8,t0
    271e:	2583fc13          	andi	s8,t2,600
    2722:	9a7d                	andi	a2,a2,-1
    2724:	167d                	addi	a2,a2,-1
    2726:	8e51                	or	a2,a2,a2
    2728:	0001                	nop
    272a:	022a36b3          	mulhu	a3,s4,sp
    272e:	8641                	srai	a2,a2,0x10
    2730:	03169a33          	mulh	s4,a3,a7
    2734:	53731897          	auipc	a7,0x53731
    2738:	880d                	andi	s0,s0,3
    273a:	74fbf837          	lui	a6,0x74fbf
    273e:	013b3b33          	sltu	s6,s6,s3
    2742:	03bcb6b3          	mulhu	a3,s9,s11
    2746:	0331b4b3          	mulhu	s1,gp,s3
    274a:	02cec5b3          	div	a1,t4,a2
    274e:	d36e4413          	xori	s0,t3,-714
    2752:	80c6                	mv	ra,a7
    2754:	0b483893          	sltiu	a7,a6,180
    2758:	0e51                	addi	t3,t3,20
    275a:	11fd                	addi	gp,gp,-1
    275c:	9e92                	add	t4,t4,tp
    275e:	02a72433          	mulhsu	s0,a4,a0
    2762:	682d                	lui	a6,0xb
    2764:	f46d4293          	xori	t0,s10,-186
    2768:	003fc433          	xor	s0,t6,gp
    276c:	83c1                	srli	a5,a5,0x10
    276e:	004ed493          	srli	s1,t4,0x4
    2772:	030041b3          	div	gp,zero,a6
    2776:	3f717893          	andi	a7,sp,1015
    277a:	6241                	lui	tp,0x10
    277c:	000b10b3          	sll	ra,s6,zero
    2780:	41add593          	srai	a1,s11,0x1a
    2784:	01c35213          	srli	tp,t1,0x1c
    2788:	01c85233          	srl	tp,a6,t3
    278c:	019546b3          	xor	a3,a0,s9
    2790:	3629a613          	slti	a2,s3,866
    2794:	0001                	nop
    2796:	141fee13          	ori	t3,t6,321
    279a:	078e                	slli	a5,a5,0x3
    279c:	0ff6                	slli	t6,t6,0x1d
    279e:	18d23093          	sltiu	ra,tp,397
    27a2:	89fd2f37          	lui	t5,0x89fd2
    27a6:	8d69                	and	a0,a0,a0
    27a8:	03db11b3          	mulh	gp,s6,t4
    27ac:	895a                	mv	s2,s6
    27ae:	87d5                	srai	a5,a5,0x15
    27b0:	f49b7c93          	andi	s9,s6,-183
    27b4:	03375cb3          	divu	s9,a4,s3
    27b8:	0e3d                	addi	t3,t3,15
    27ba:	8cf5                	and	s1,s1,a3
    27bc:	0001                	nop
    27be:	00bc1193          	slli	gp,s8,0xb
    27c2:	1a7d                	addi	s4,s4,-1
    27c4:	462f81b7          	lui	gp,0x462f8
    27c8:	8de5                	and	a1,a1,s1
    27ca:	0001                	nop
    27cc:	8fb1                	xor	a5,a5,a2
    27ce:	8945                	andi	a0,a0,17
    27d0:	8f8d                	sub	a5,a5,a1
    27d2:	137d                	addi	t1,t1,-1
    27d4:	8e49                	or	a2,a2,a0
    27d6:	0842                	slli	a6,a6,0x10
    27d8:	2b624413          	xori	s0,tp,694
    27dc:	0001                	nop
    27de:	005954b3          	srl	s1,s2,t0
    27e2:	0176aab3          	slt	s5,a3,s7
    27e6:	01441b33          	sll	s6,s0,s4
    27ea:	03a3ea33          	rem	s4,t2,s10
    27ee:	02132cb3          	mulhsu	s9,t1,ra
    27f2:	0162e2b3          	or	t0,t0,s6
    27f6:	68254817          	auipc	a6,0x68254
    27fa:	00f7dd13          	srli	s10,a5,0xf
    27fe:	117d                	addi	sp,sp,-1
    2800:	025af8b3          	remu	a7,s5,t0
    2804:	40f75193          	srai	gp,a4,0xf
    2808:	661d                	lui	a2,0x7
    280a:	8799                	srai	a5,a5,0x6
    280c:	03971ab3          	mulh	s5,a4,s9
    2810:	3f72f613          	andi	a2,t0,1015
    2814:	02f80bb3          	mul	s7,a6,a5
    2818:	03ca76b3          	remu	a3,s4,t3
    281c:	6eb5                	lui	t4,0xd
    281e:	0f66                	slli	t5,t5,0x19
    2820:	d2afa813          	slti	a6,t6,-726
    2824:	029f9533          	mulh	a0,t6,s1
    2828:	0001                	nop
    282a:	03d24833          	div	a6,tp,t4
    282e:	00c35913          	srli	s2,t1,0xc
    2832:	00094a33          	xor	s4,s2,zero
    2836:	8e09                	sub	a2,a2,a0
    2838:	8d49                	or	a0,a0,a0
    283a:	37514613          	xori	a2,sp,885
    283e:	014023b3          	sgtz	t2,s4
    2842:	f2d85217          	auipc	tp,0xf2d85
    2846:	412906b3          	sub	a3,s2,s2
    284a:	0001                	nop
    284c:	03cd4493          	xori	s1,s10,60
    2850:	8446                	mv	s0,a7
    2852:	03f10833          	mul	a6,sp,t6
    2856:	99fd                	andi	a1,a1,-1
    2858:	037c61b3          	rem	gp,s8,s7
    285c:	7fb4f337          	lui	t1,0x7fb4f
    2860:	0001                	nop
    2862:	01dbde13          	srli	t3,s7,0x1d
    2866:	0001                	nop
    2868:	8abd                	andi	a3,a3,15
    286a:	838d                	srli	a5,a5,0x3
    286c:	b745bb97          	auipc	s7,0xb745b
    2870:	0d62                	slli	s10,s10,0x18
    2872:	02f1b1b3          	mulhu	gp,gp,a5
    2876:	0061feb3          	and	t4,gp,t1
    287a:	82f5                	srli	a3,a3,0x1d
    287c:	66b5                	lui	a3,0xd
    287e:	0236ccb3          	div	s9,a3,gp
    2882:	0001                	nop
    2884:	01ce7d33          	and	s10,t3,t3
    2888:	8ae6                	mv	s5,s9
    288a:	58fcffb7          	lui	t6,0x58fcf
    288e:	44e1                	li	s1,24
    2890:	2be07593          	andi	a1,zero,702
    2894:	e467a213          	slti	tp,a5,-442
    2898:	036ffbb3          	remu	s7,t6,s6
    289c:	8e89                	sub	a3,a3,a0
    289e:	08e1                	addi	a7,a7,24
    28a0:	01fdd833          	srl	a6,s11,t6
    28a4:	8165                	srli	a0,a0,0x19
    28a6:	03098333          	mul	t1,s3,a6
    28aa:	18a86b13          	ori	s6,a6,394
    28ae:	06d2                	slli	a3,a3,0x14
    28b0:	717d                	addi	sp,sp,-16
    28b2:	8ec9                	or	a3,a3,a0
    28b4:	01971e93          	slli	t4,a4,0x19
    28b8:	03f1c5b3          	div	a1,gp,t6
    28bc:	8cf9                	and	s1,s1,a4
    28be:	8155                	srli	a0,a0,0x15
    28c0:	0390fbb3          	remu	s7,ra,s9
    28c4:	025cab33          	mulhsu	s6,s9,t0
    28c8:	01af48b3          	xor	a7,t5,s10
    28cc:	02dbbab3          	mulhu	s5,s7,a3
    28d0:	1ffd                	addi	t6,t6,-1
    28d2:	20188913          	addi	s2,a7,513 # 53733935 <_kernel_instr_end+0x53726a99>
    28d6:	06b6                	slli	a3,a3,0xd
    28d8:	c0488013          	addi	zero,a7,-1020
    28dc:	0152bab3          	sltu	s5,t0,s5
    28e0:	0001                	nop
    28e2:	015d56b3          	srl	a3,s10,s5
    28e6:	024a1eb3          	mulh	t4,s4,tp
    28ea:	41770b33          	sub	s6,a4,s7
    28ee:	02302bb3          	mulhsu	s7,zero,gp
    28f2:	02518133          	mul	sp,gp,t0
    28f6:	9ffe                	add	t6,t6,t6
    28f8:	717d                	addi	sp,sp,-16
    28fa:	6105                	addi	sp,sp,32
    28fc:	0001                	nop
    28fe:	0318c533          	div	a0,a7,a7
    2902:	0026ecb3          	or	s9,a3,sp
    2906:	848d                	srai	s1,s1,0x3
    2908:	0001                	nop
    290a:	0001                	nop
    290c:	8d65                	and	a0,a0,s1
    290e:	40cd0133          	sub	sp,s10,a2
    2912:	8c39                	xor	s0,s0,a4
    2914:	f2b6bb13          	sltiu	s6,a3,-213
    2918:	1a533493          	sltiu	s1,t1,421
    291c:	857d                	srai	a0,a0,0x1f
    291e:	717d                	addi	sp,sp,-16
    2920:	003172b3          	and	t0,sp,gp
    2924:	7d3ab217          	auipc	tp,0x7d3ab
    2928:	0161                	addi	sp,sp,24
    292a:	01e5aeb3          	slt	t4,a1,t5
    292e:	717d                	addi	sp,sp,-16
    2930:	c0868793          	addi	a5,a3,-1016 # cc08 <pt_fault_handler+0xe08>
    2934:	5bd5e337          	lui	t1,0x5bd5e
    2938:	987d                	andi	s0,s0,-1
    293a:	412d8fb3          	sub	t6,s11,s2
    293e:	03a7bb93          	sltiu	s7,a5,58
    2942:	41795d13          	srai	s10,s2,0x17
    2946:	13540513          	addi	a0,s0,309 # df91e803 <_kernel_instr_end+0xdf911967>
    294a:	01c9e833          	or	a6,s3,t3
    294e:	01f4cfb3          	xor	t6,s1,t6
    2952:	f0b64a13          	xori	s4,a2,-245
    2956:	80d5                	srli	s1,s1,0x15
    2958:	40958433          	sub	s0,a1,s1
    295c:	1afd                	addi	s5,s5,-1
    295e:	8241                	srli	a2,a2,0x10
    2960:	02957a33          	remu	s4,a0,s1
    2964:	00109f13          	slli	t5,ra,0x1
    2968:	02f855b3          	divu	a1,a6,a5
    296c:	83ae                	mv	t2,a1
    296e:	23824097          	auipc	ra,0x23824
    2972:	52fd                	li	t0,-1
    2974:	00c32333          	slt	t1,t1,a2
    2978:	862f8017          	auipc	zero,0x862f8
    297c:	8a3e                	mv	s4,a5
    297e:	02359933          	mulh	s2,a1,gp
    2982:	019010b3          	sll	ra,zero,s9
    2986:	8d21                	xor	a0,a0,s0
    2988:	d9fcf693          	andi	a3,s9,-609
    298c:	9b32                	add	s6,s6,a2
    298e:	009cc233          	xor	tp,s9,s1
    2992:	92b6                	add	t0,t0,a3
    2994:	01327b33          	and	s6,tp,s3
    2998:	0789                	addi	a5,a5,2
    299a:	4649                	li	a2,18
    299c:	00181c93          	slli	s9,a6,0x1
    29a0:	0865                	addi	a6,a6,25
    29a2:	2cc52293          	slti	t0,a0,716
    29a6:	81fd                	srli	a1,a1,0x1f
    29a8:	97347d17          	auipc	s10,0x97347
    29ac:	41ba5c13          	srai	s8,s4,0x1b
    29b0:	02d2b133          	mulhu	sp,t0,a3
    29b4:	0f9e                	slli	t6,t6,0x7
    29b6:	01496933          	or	s2,s2,s4
    29ba:	0841                	addi	a6,a6,16
    29bc:	efda5b97          	auipc	s7,0xefda5
    29c0:	27918b93          	addi	s7,gp,633 # 462f8279 <_kernel_instr_end+0x462eb3dd>
    29c4:	01be5533          	srl	a0,t3,s11
    29c8:	027d7eb3          	remu	t4,s10,t2
    29cc:	0001                	nop
    29ce:	27f58493          	addi	s1,a1,639 # 9d57d8e9 <_kernel_instr_end+0x9d570a4d>
    29d2:	0061df13          	srli	t5,gp,0x6
    29d6:	fad28893          	addi	a7,t0,-83 # bb39afad <_kernel_instr_end+0xbb38e111>
    29da:	9a7d                	andi	a2,a2,-1
    29dc:	002e1113          	slli	sp,t3,0x2
    29e0:	40345113          	srai	sp,s0,0x3
    29e4:	00edef33          	or	t5,s11,a4
    29e8:	023695b3          	mulh	a1,a3,gp
    29ec:	717d                	addi	sp,sp,-16
    29ee:	00b91b93          	slli	s7,s2,0xb
    29f2:	187d                	addi	a6,a6,-1
    29f4:	00a78fb3          	add	t6,a5,a0
    29f8:	005150b3          	srl	ra,sp,t0
    29fc:	18fd                	addi	a7,a7,-1
    29fe:	406adf93          	srai	t6,s5,0x6
    2a02:	836e                	mv	t1,s11
    2a04:	0ce6                	slli	s9,s9,0x19
    2a06:	8e45                	or	a2,a2,s1
    2a08:	0320e6b3          	rem	a3,ra,s2
    2a0c:	03e6f7b3          	remu	a5,a3,t5
    2a10:	04c0f293          	andi	t0,ra,76
    2a14:	01f48e33          	add	t3,s1,t6
    2a18:	cbde2013          	slti	zero,t3,-835
    2a1c:	866d                	srai	a2,a2,0x1b
    2a1e:	8791                	srai	a5,a5,0x4
    2a20:	985572b7          	lui	t0,0x98557
    2a24:	8fca                	mv	t6,s2
    2a26:	03184f33          	div	t5,a6,a7
    2a2a:	8c1d                	sub	s0,s0,a5
    2a2c:	1b2d7013          	andi	zero,s10,434
    2a30:	610d                	addi	sp,sp,160
    2a32:	00cb6f33          	or	t5,s6,a2
    2a36:	8cb9                	xor	s1,s1,a4
    2a38:	185ae293          	ori	t0,s5,389
    2a3c:	02e350b3          	divu	ra,t1,a4
    2a40:	00b31f93          	slli	t6,t1,0xb
    2a44:	e2d27613          	andi	a2,tp,-467
    2a48:	8da5                	xor	a1,a1,s1
    2a4a:	5f990397          	auipc	t2,0x5f990
    2a4e:	84a1                	srai	s1,s1,0x8
    2a50:	d8def093          	andi	ra,t4,-627
    2a54:	40085513          	srai	a0,a6,0x0
    2a58:	8fe1                	and	a5,a5,s0
    2a5a:	00e29633          	sll	a2,t0,a4
    2a5e:	08c9                	addi	a7,a7,18
    2a60:	00343033          	sltu	zero,s0,gp
    2a64:	003ab033          	sltu	zero,s5,gp
    2a68:	030d62b3          	rem	t0,s10,a6
    2a6c:	82ed                	srli	a3,a3,0x1b
    2a6e:	03070eb3          	mul	t4,a4,a6
    2a72:	75214797          	auipc	a5,0x75214
    2a76:	01d8a1b3          	slt	gp,a7,t4
    2a7a:	03cf4433          	div	s0,t5,t3
    2a7e:	41fd56b3          	sra	a3,s10,t6
    2a82:	01b93a33          	sltu	s4,s2,s11
    2a86:	01d46f33          	or	t5,s0,t4
    2a8a:	8ee5                	and	a3,a3,s1
    2a8c:	950e                	add	a0,a0,gp
    2a8e:	4196d6b3          	sra	a3,a3,s9
    2a92:	03db4233          	div	tp,s6,t4
    2a96:	0116beb3          	sltu	t4,a3,a7
    2a9a:	0214c1b3          	div	gp,s1,ra
    2a9e:	211b8e13          	addi	t3,s7,529 # efda7bcd <_kernel_instr_end+0xefd9ad31>
    2aa2:	10476d13          	ori	s10,a4,260
    2aa6:	4112da13          	srai	s4,t0,0x11
    2aaa:	99fd                	andi	a1,a1,-1
    2aac:	02ca63b3          	rem	t2,s4,a2
    2ab0:	0098dcb3          	srl	s9,a7,s1
    2ab4:	03e7d433          	divu	s0,a5,t5
    2ab8:	40a98bb3          	sub	s7,s3,a0
    2abc:	8a55                	andi	a2,a2,21
    2abe:	0001                	nop
    2ac0:	01ace333          	or	t1,s9,s10
    2ac4:	03ebc7b3          	div	a5,s7,t5
    2ac8:	ac03df97          	auipc	t6,0xac03d
    2acc:	02f712b3          	mulh	t0,a4,a5
    2ad0:	ed9e2513          	slti	a0,t3,-295
    2ad4:	8a5c5497          	auipc	s1,0x8a5c5
    2ad8:	0118df33          	srl	t5,a7,a7
    2adc:	02ce32b3          	mulhu	t0,t3,a2
    2ae0:	90de                	add	ra,ra,s7
    2ae2:	0ae6                	slli	s5,s5,0x19
    2ae4:	03ebd4b3          	divu	s1,s7,t5
    2ae8:	0001                	nop
    2aea:	000351b3          	srl	gp,t1,zero
    2aee:	6141                	addi	sp,sp,16
    2af0:	65e9                	lui	a1,0x1a
    2af2:	6111                	addi	sp,sp,256
    2af4:	019813b3          	sll	t2,a6,s9
    2af8:	03e88eb3          	mul	t4,a7,t5
    2afc:	5c7d                	li	s8,-1
    2afe:	021be833          	rem	a6,s7,ra
    2b02:	a175a8b7          	lui	a7,0xa175a
    2b06:	04bfcd13          	xori	s10,t6,75
    2b0a:	036cf5b3          	remu	a1,s9,s6
    2b0e:	027835b3          	mulhu	a1,a6,t2
    2b12:	82bd                	srli	a3,a3,0xf
    2b14:	0001                	nop
    2b16:	40c45eb3          	sra	t4,s0,a2
    2b1a:	0635                	addi	a2,a2,13
    2b1c:	41305293          	srai	t0,zero,0x13
    2b20:	41ae57b3          	sra	a5,t3,s10
    2b24:	fdd2c893          	xori	a7,t0,-35
    2b28:	00c3db93          	srli	s7,t2,0xc
    2b2c:	03378b33          	mul	s6,a5,s3
    2b30:	8e1d                	sub	a2,a2,a5
    2b32:	03539bb3          	mulh	s7,t2,s5
    2b36:	0139f433          	and	s0,s3,s3
    2b3a:	8c49                	or	s0,s0,a0
    2b3c:	948a                	add	s1,s1,sp
    2b3e:	824d                	srli	a2,a2,0x13
    2b40:	413b5eb3          	sra	t4,s6,s3
    2b44:	303afc93          	andi	s9,s5,771
    2b48:	8c8d                	sub	s1,s1,a1
    2b4a:	01fc3833          	sltu	a6,s8,t6
    2b4e:	02454f33          	div	t5,a0,tp
    2b52:	0027cab3          	xor	s5,a5,sp
    2b56:	02524833          	div	a6,tp,t0
    2b5a:	03afe033          	rem	zero,t6,s10
    2b5e:	011e5213          	srli	tp,t3,0x11
    2b62:	8009                	srli	s0,s0,0x2
    2b64:	001fb433          	sltu	s0,t6,ra
    2b68:	03d700b3          	mul	ra,a4,t4
    2b6c:	8e0d                	sub	a2,a2,a1
    2b6e:	8eb9                	xor	a3,a3,a4
    2b70:	02f93433          	mulhu	s0,s2,a5
    2b74:	68d5                	lui	a7,0x15
    2b76:	036f2033          	mulhsu	zero,t5,s6
    2b7a:	022195b3          	mulh	a1,gp,sp
    2b7e:	8c4d                	or	s0,s0,a1
    2b80:	039a7ab3          	remu	s5,s4,s9
    2b84:	0001                	nop
    2b86:	01e86d33          	or	s10,a6,t5
    2b8a:	41edd4b3          	sra	s1,s11,t5
    2b8e:	416d83b3          	sub	t2,s11,s6
    2b92:	034edd33          	divu	s10,t4,s4
    2b96:	41ab0533          	sub	a0,s6,s10
    2b9a:	02d6b0b3          	mulhu	ra,a3,a3
    2b9e:	717d                	addi	sp,sp,-16
    2ba0:	01fcd413          	srli	s0,s9,0x1f
    2ba4:	005900b3          	add	ra,s2,t0
    2ba8:	0836                	slli	a6,a6,0xd
    2baa:	039aa7b3          	mulhsu	a5,s5,s9
    2bae:	004377b3          	and	a5,t1,tp
    2bb2:	8ffd                	and	a5,a5,a5
    2bb4:	ec6ea193          	slti	gp,t4,-314
    2bb8:	005744b3          	xor	s1,a4,t0
    2bbc:	0001                	nop
    2bbe:	0141a533          	slt	a0,gp,s4
    2bc2:	002fc033          	xor	zero,t6,sp
    2bc6:	fb896413          	ori	s0,s2,-72
    2bca:	00dda933          	slt	s2,s11,a3
    2bce:	1f2ab293          	sltiu	t0,s5,498
    2bd2:	03a98e33          	mul	t3,s3,s10
    2bd6:	00bf3933          	sltu	s2,t5,a1
    2bda:	40b7dc93          	srai	s9,a5,0xb
    2bde:	42d9                	li	t0,22
    2be0:	00b35933          	srl	s2,t1,a1
    2be4:	4931                	li	s2,12
    2be6:	025bbe33          	mulhu	t3,s7,t0
    2bea:	8fa9                	xor	a5,a5,a0
    2bec:	0001                	nop
    2bee:	41d35533          	sra	a0,t1,t4
    2bf2:	010d46b3          	xor	a3,s10,a6
    2bf6:	6ad1                	lui	s5,0x14
    2bf8:	8e6d                	and	a2,a2,a1
    2bfa:	01dfed33          	or	s10,t6,t4
    2bfe:	c60ded13          	ori	s10,s11,-928
    2c02:	01616bb3          	or	s7,sp,s6
    2c06:	6b71                	lui	s6,0x1c
    2c08:	00ada5b3          	slt	a1,s11,a0
    2c0c:	00ae9233          	sll	tp,t4,a0
    2c10:	0a0a                	slli	s4,s4,0x2
    2c12:	00cd6e33          	or	t3,s10,a2
    2c16:	00926d33          	or	s10,tp,s1
    2c1a:	021462b3          	rem	t0,s0,ra
    2c1e:	032b88b3          	mul	a7,s7,s2
    2c22:	015037b3          	snez	a5,s5
    2c26:	40a701b3          	sub	gp,a4,a0
    2c2a:	c160b613          	sltiu	a2,ra,-1002
    2c2e:	03a996b3          	mulh	a3,s3,s10
    2c32:	8419                	srai	s0,s0,0x6
    2c34:	034ed5b3          	divu	a1,t4,s4
    2c38:	8bad                	andi	a5,a5,11
    2c3a:	40be5293          	srai	t0,t3,0xb
    2c3e:	41eedc93          	srai	s9,t4,0x1e
    2c42:	2a8da213          	slti	tp,s11,680
    2c46:	8cfd                	and	s1,s1,a5
    2c48:	8ff9                	and	a5,a5,a4
    2c4a:	02878a33          	mul	s4,a5,s0
    2c4e:	038670b3          	remu	ra,a2,s8
    2c52:	387d4413          	xori	s0,s10,903
    2c56:	00e9dd13          	srli	s10,s3,0xe
    2c5a:	41a15093          	srai	ra,sp,0x1a
    2c5e:	8df5                	and	a1,a1,a3
    2c60:	03561633          	mulh	a2,a2,s5
    2c64:	01d3dcb3          	srl	s9,t2,t4
    2c68:	025c8233          	mul	tp,s9,t0
    2c6c:	37814c13          	xori	s8,sp,888
    2c70:	d35c3bb7          	lui	s7,0xd35c3
    2c74:	01dd3e33          	sltu	t3,s10,t4
    2c78:	0016ea33          	or	s4,a3,ra
    2c7c:	8fb5                	xor	a5,a5,a3
    2c7e:	00082033          	sltz	zero,a6
    2c82:	4261                	li	tp,24
    2c84:	012d2fb3          	slt	t6,s10,s2
    2c88:	93e2                	add	t2,t2,s8
    2c8a:	ee7dcf93          	xori	t6,s11,-281
    2c8e:	9a16                	add	s4,s4,t0
    2c90:	007d06b3          	add	a3,s10,t2
    2c94:	406606b3          	sub	a3,a2,t1
    2c98:	8e29                	xor	a2,a2,a0
    2c9a:	8785                	srai	a5,a5,0x1
    2c9c:	8fd9                	or	a5,a5,a4
    2c9e:	6659                	lui	a2,0x16
    2ca0:	8da1                	xor	a1,a1,s0
    2ca2:	0178e8b3          	or	a7,a7,s7
    2ca6:	007848b3          	xor	a7,a6,t2
    2caa:	9b86                	add	s7,s7,ra
    2cac:	407c04b3          	sub	s1,s8,t2
    2cb0:	84ad                	srai	s1,s1,0xb
    2cb2:	717d                	addi	sp,sp,-16
    2cb4:	2111b697          	auipc	a3,0x2111b
    2cb8:	036ffab3          	remu	s5,t6,s6
    2cbc:	717d                	addi	sp,sp,-16
    2cbe:	6179                	addi	sp,sp,464
    2cc0:	03a924b3          	mulhsu	s1,s2,s10
    2cc4:	ff597013          	andi	zero,s2,-11
    2cc8:	8e1d                	sub	a2,a2,a5
    2cca:	0bc1                	addi	s7,s7,16
    2ccc:	035a24b3          	mulhsu	s1,s4,s5
    2cd0:	9f66                	add	t5,t5,s9
    2cd2:	0001                	nop
    2cd4:	017abbb3          	sltu	s7,s5,s7
    2cd8:	41ecd213          	srai	tp,s9,0x1e
    2cdc:	8c19                	sub	s0,s0,a4
    2cde:	01e0c433          	xor	s0,ra,t5
    2ce2:	00f22a33          	slt	s4,tp,a5
    2ce6:	8306                	mv	t1,ra
    2ce8:	024d8533          	mul	a0,s11,tp
    2cec:	2250c817          	auipc	a6,0x2250c
    2cf0:	00131633          	sll	a2,t1,ra
    2cf4:	02445933          	divu	s2,s0,tp
    2cf8:	db0f6e93          	ori	t4,t5,-592
    2cfc:	8e45                	or	a2,a2,s1
    2cfe:	033f2ab3          	mulhsu	s5,t5,s3
    2d02:	40d75f13          	srai	t5,a4,0xd
    2d06:	00d47633          	and	a2,s0,a3
    2d0a:	02617933          	remu	s2,sp,t1
    2d0e:	8661                	srai	a2,a2,0x18
    2d10:	334ab493          	sltiu	s1,s5,820
    2d14:	2dfc6213          	ori	tp,s8,735
    2d18:	8eed                	and	a3,a3,a1
    2d1a:	094e                	slli	s2,s2,0x13
    2d1c:	0e0e                	slli	t3,t3,0x3
    2d1e:	2e7f6917          	auipc	s2,0x2e7f6
    2d22:	01e04233          	xor	tp,zero,t5
    2d26:	3a260113          	addi	sp,a2,930 # 163a2 <_kernel_instr_end+0x9506>
    2d2a:	40880fb3          	sub	t6,a6,s0
    2d2e:	0001                	nop
    2d30:	fe63cb13          	xori	s6,t2,-26
    2d34:	093e                	slli	s2,s2,0xf
    2d36:	8e0d                	sub	a2,a2,a1
    2d38:	fdacce93          	xori	t4,s9,-38
    2d3c:	8fbd                	xor	a5,a5,a5
    2d3e:	0001                	nop
    2d40:	00f79393          	slli	t2,a5,0xf
    2d44:	cedece93          	xori	t4,t4,-787
    2d48:	8862                	mv	a6,s8
    2d4a:	ce5e2497          	auipc	s1,0xce5e2
    2d4e:	0001                	nop
    2d50:	002e9293          	slli	t0,t4,0x2
    2d54:	01401e33          	sll	t3,zero,s4
    2d58:	8e11                	sub	a2,a2,a2
    2d5a:	01045593          	srli	a1,s0,0x10
    2d5e:	0b2be893          	ori	a7,s7,178
    2d62:	00119e13          	slli	t3,gp,0x1
    2d66:	0210c3b3          	div	t2,ra,ra
    2d6a:	8205                	srli	a2,a2,0x1
    2d6c:	0041eab3          	or	s5,gp,tp
    2d70:	0001                	nop
    2d72:	98fd                	andi	s1,s1,-1
    2d74:	ff750d13          	addi	s10,a0,-9 # 9beedff7 <_kernel_instr_end+0x9bee115b>
    2d78:	01f4e333          	or	t1,s1,t6
    2d7c:	01b15093          	srli	ra,sp,0x1b
    2d80:	6105                	addi	sp,sp,32
    2d82:	00ab3e33          	sltu	t3,s6,a0
    2d86:	01e382b3          	add	t0,t2,t5
    2d8a:	87bd                	srai	a5,a5,0xf
    2d8c:	8dc1                	or	a1,a1,s0
    2d8e:	0239af33          	mulhsu	t5,s3,gp
    2d92:	00ad3f33          	sltu	t5,s10,a0
    2d96:	6411                	lui	s0,0x4
    2d98:	b5b94017          	auipc	zero,0xb5b94
    2d9c:	ff9ea493          	slti	s1,t4,-7
    2da0:	efef6c93          	ori	s9,t5,-258
    2da4:	41685033          	sra	zero,a6,s6
    2da8:	28070393          	addi	t2,a4,640
    2dac:	015ce833          	or	a6,s9,s5
    2db0:	02e6c6b3          	div	a3,a3,a4
    2db4:	02b2b633          	mulhu	a2,t0,a1
    2db8:	e9024293          	xori	t0,tp,-368
    2dbc:	02c917b3          	mulh	a5,s2,a2
    2dc0:	da4eb413          	sltiu	s0,t4,-604
    2dc4:	41d954b3          	sra	s1,s2,t4
    2dc8:	403807b3          	sub	a5,a6,gp
    2dcc:	03a5a7b3          	mulhsu	a5,a1,s10
    2dd0:	1c44e093          	ori	ra,s1,452
    2dd4:	931a                	add	t1,t1,t1
    2dd6:	0001                	nop
    2dd8:	03777833          	remu	a6,a4,s7
    2ddc:	6949                	lui	s2,0x12
    2dde:	41d9                	li	gp,22
    2de0:	9afd                	andi	a3,a3,-1
    2de2:	8e85                	sub	a3,a3,s1
    2de4:	03095933          	divu	s2,s2,a6
    2de8:	c3934413          	xori	s0,t1,-967
    2dec:	2883a813          	slti	a6,t2,648
    2df0:	027697b3          	mulh	a5,a3,t2
    2df4:	00694933          	xor	s2,s2,t1
    2df8:	342ef913          	andi	s2,t4,834
    2dfc:	80ed                	srli	s1,s1,0x1b
    2dfe:	98c6                	add	a7,a7,a7
    2e00:	02bec2b3          	div	t0,t4,a1
    2e04:	8a5e                	mv	s4,s7
    2e06:	01f75793          	srli	a5,a4,0x1f
    2e0a:	028341b3          	div	gp,t1,s0
    2e0e:	3aed2d13          	slti	s10,s10,942
    2e12:	30728bb7          	lui	s7,0x30728
    2e16:	0001                	nop
    2e18:	00fcd293          	srli	t0,s9,0xf
    2e1c:	02d9e033          	rem	zero,s3,a3
    2e20:	82e5                	srli	a3,a3,0x19
    2e22:	0a69                	addi	s4,s4,26
    2e24:	0be4f913          	andi	s2,s1,190
    2e28:	00f8b1b3          	sltu	gp,a7,a5
    2e2c:	f2ffa493          	slti	s1,t6,-209
    2e30:	12fd                	addi	t0,t0,-1
    2e32:	00afcf33          	xor	t5,t6,a0
    2e36:	03c470b3          	remu	ra,s0,t3
    2e3a:	6115                	addi	sp,sp,288
    2e3c:	021ddbb3          	divu	s7,s11,ra
    2e40:	ff21e213          	ori	tp,gp,-14
    2e44:	01ddda93          	srli	s5,s11,0x1d
    2e48:	2a728c97          	auipc	s9,0x2a728
    2e4c:	8565                	srai	a0,a0,0x19
    2e4e:	0001                	nop
    2e50:	547d                	li	s0,-1
    2e52:	00eeb233          	sltu	tp,t4,a4
    2e56:	167d                	addi	a2,a2,-1
    2e58:	8cb1                	xor	s1,s1,a2
    2e5a:	cd553e13          	sltiu	t3,a0,-811
    2e5e:	8025                	srli	s0,s0,0x9
    2e60:	41625613          	srai	a2,tp,0x16
    2e64:	13fd                	addi	t2,t2,-1
    2e66:	03b4fc33          	remu	s8,s1,s11
    2e6a:	022113b3          	mulh	t2,sp,sp
    2e6e:	8491                	srai	s1,s1,0x4
    2e70:	01e0f033          	and	zero,ra,t5
    2e74:	6c11                	lui	s8,0x4
    2e76:	8c59                	or	s0,s0,a4
    2e78:	000cb833          	sltu	a6,s9,zero
    2e7c:	9afa                	add	s5,s5,t5
    2e7e:	caf40e13          	addi	t3,s0,-849 # 3caf <_main+0x1bd9>
    2e82:	8d91                	sub	a1,a1,a2
    2e84:	0086cf33          	xor	t5,a3,s0
    2e88:	01d90533          	add	a0,s2,t4
    2e8c:	46a5                	li	a3,9
    2e8e:	03062c33          	mulhsu	s8,a2,a6
    2e92:	4d6d                	li	s10,27
    2e94:	8ef9                	and	a3,a3,a4
    2e96:	717d                	addi	sp,sp,-16
    2e98:	00d31293          	slli	t0,t1,0xd
    2e9c:	41d4d7b3          	sra	a5,s1,t4
    2ea0:	6145                	addi	sp,sp,48
    2ea2:	086d                	addi	a6,a6,27
    2ea4:	01208133          	add	sp,ra,s2
    2ea8:	0001                	nop
    2eaa:	01efb6b3          	sltu	a3,t6,t5
    2eae:	6165                	addi	sp,sp,112
    2eb0:	016b24b3          	slt	s1,s6,s6
    2eb4:	07923217          	auipc	tp,0x7923
    2eb8:	41a80e33          	sub	t3,a6,s10
    2ebc:	64f9                	lui	s1,0x1e
    2ebe:	00abd693          	srli	a3,s7,0xa
    2ec2:	01f4a8b3          	slt	a7,s1,t6
    2ec6:	0022dbb3          	srl	s7,t0,sp
    2eca:	82b1                	srli	a3,a3,0xc
    2ecc:	d28fcb13          	xori	s6,t6,-728
    2ed0:	6151                	addi	sp,sp,272
    2ed2:	8ffa                	mv	t6,t5
    2ed4:	0349b833          	mulhu	a6,s3,s4
    2ed8:	1d676b13          	ori	s6,a4,470
    2edc:	412bd033          	sra	zero,s7,s2
    2ee0:	8fa9                	xor	a5,a5,a0
    2ee2:	00ec6833          	or	a6,s8,a4
    2ee6:	419e8e33          	sub	t3,t4,s9
    2eea:	8c75                	and	s0,s0,a3
    2eec:	597d                	li	s2,-1
    2eee:	00328133          	add	sp,t0,gp
    2ef2:	0311a3b3          	mulhsu	t2,gp,a7
    2ef6:	2479ec93          	ori	s9,s3,583
    2efa:	6129                	addi	sp,sp,192
    2efc:	8f8d                	sub	a5,a5,a1
    2efe:	d5f2ca17          	auipc	s4,0xd5f2c
    2f02:	01915eb3          	srl	t4,sp,s9
    2f06:	003fd193          	srli	gp,t6,0x3
    2f0a:	026594b3          	mulh	s1,a1,t1
    2f0e:	002f16b3          	sll	a3,t5,sp
    2f12:	8c65                	and	s0,s0,s1
    2f14:	30e6ae13          	slti	t3,a3,782
    2f18:	c424c213          	xori	tp,s1,-958
    2f1c:	0812                	slli	a6,a6,0x4
    2f1e:	cec47c13          	andi	s8,s0,-788
    2f22:	840e                	mv	s0,gp
    2f24:	025be4b3          	rem	s1,s7,t0
    2f28:	0c7a                	slli	s8,s8,0x1e
    2f2a:	03fded33          	rem	s10,s11,t6
    2f2e:	24df6513          	ori	a0,t5,589
    2f32:	8d85                	sub	a1,a1,s1
    2f34:	15aac613          	xori	a2,s5,346
    2f38:	96aa                	add	a3,a3,a0
    2f3a:	0441                	addi	s0,s0,16
    2f3c:	00000ab3          	add	s5,zero,zero
    2f40:	034ebd33          	mulhu	s10,t4,s4
    2f44:	07de0a93          	addi	s5,t3,125
    2f48:	0001                	nop
    2f4a:	81a9                	srli	a1,a1,0xa
    2f4c:	62dd                	lui	t0,0x17
    2f4e:	0169e4b3          	or	s1,s3,s6
    2f52:	8c25                	xor	s0,s0,s1
    2f54:	031464b3          	rem	s1,s0,a7
    2f58:	024ceb33          	rem	s6,s9,tp
    2f5c:	799c0b97          	auipc	s7,0x799c0
    2f60:	8c3a                	mv	s8,a4
    2f62:	65b9                	lui	a1,0xe
    2f64:	49ee4237          	lui	tp,0x49ee4
    2f68:	02309833          	mulh	a6,ra,gp
    2f6c:	08e6                	slli	a7,a7,0x19
    2f6e:	5c7d                	li	s8,-1
    2f70:	03008f33          	mul	t5,ra,a6
    2f74:	9f2e                	add	t5,t5,a1
    2f76:	96d2                	add	a3,a3,s4
    2f78:	00d70133          	add	sp,a4,a3
    2f7c:	82cd                	srli	a3,a3,0x13
    2f7e:	0024bf33          	sltu	t5,s1,sp
    2f82:	002d9833          	sll	a6,s11,sp
    2f86:	0001                	nop
    2f88:	01399bb3          	sll	s7,s3,s3
    2f8c:	2ed27e93          	andi	t4,tp,749
    2f90:	90b6                	add	ra,ra,a3
    2f92:	000a2b33          	sltz	s6,s4
    2f96:	81e2                	mv	gp,s8
    2f98:	65c1                	lui	a1,0x10
    2f9a:	02891133          	mulh	sp,s2,s0
    2f9e:	4139                	li	sp,14
    2fa0:	83bd                	srli	a5,a5,0xf
    2fa2:	0e92                	slli	t4,t4,0x4
    2fa4:	008cd933          	srl	s2,s9,s0
    2fa8:	1c110813          	addi	a6,sp,449
    2fac:	0028b633          	sltu	a2,a7,sp
    2fb0:	026661b3          	rem	gp,a2,t1
    2fb4:	8d45                	or	a0,a0,s1
    2fb6:	234ba893          	slti	a7,s7,564
    2fba:	005225b3          	slt	a1,tp,t0
    2fbe:	009f0533          	add	a0,t5,s1
    2fc2:	0038d933          	srl	s2,a7,gp
    2fc6:	050a                	slli	a0,a0,0x2
    2fc8:	24a2b013          	sltiu	zero,t0,586
    2fcc:	e617ee93          	ori	t4,a5,-415
    2fd0:	fe63ac13          	slti	s8,t2,-26
    2fd4:	03f68633          	mul	a2,a3,t6
    2fd8:	00f4df13          	srli	t5,s1,0xf
    2fdc:	000a6533          	or	a0,s4,zero
    2fe0:	019ddf93          	srli	t6,s11,0x19
    2fe4:	8ecd                	or	a3,a3,a1
    2fe6:	96f2                	add	a3,a3,t3
    2fe8:	e0d98f93          	addi	t6,s3,-499
    2fec:	01521b13          	slli	s6,tp,0x15
    2ff0:	173b2893          	slti	a7,s6,371
    2ff4:	1e0ef413          	andi	s0,t4,480
    2ff8:	8e89                	sub	a3,a3,a0
    2ffa:	6159                	addi	sp,sp,400
    2ffc:	03d03a33          	mulhu	s4,zero,t4
    3000:	fa887a93          	andi	s5,a6,-88
    3004:	00682fb3          	slt	t6,a6,t1
    3008:	0001                	nop
    300a:	42d9                	li	t0,22
    300c:	10fd                	addi	ra,ra,-1
    300e:	02da57b3          	divu	a5,s4,a3
    3012:	c24fae93          	slti	t4,t6,-988
    3016:	033aabb3          	mulhsu	s7,s5,s3
    301a:	9f1e                	add	t5,t5,t2
    301c:	812e                	mv	sp,a1
    301e:	8e39                	xor	a2,a2,a4
    3020:	02254133          	div	sp,a0,sp
    3024:	000adc33          	srl	s8,s5,zero
    3028:	df7f2113          	slti	sp,t5,-521
    302c:	612d                	addi	sp,sp,224
    302e:	035153b3          	divu	t2,sp,s5
    3032:	008d8a33          	add	s4,s11,s0
    3036:	01a9e233          	or	tp,s3,s10
    303a:	6a5d                	lui	s4,0x17
    303c:	e9a9e013          	ori	zero,s3,-358
    3040:	000801b3          	add	gp,a6,zero
    3044:	4082d793          	srai	a5,t0,0x8
    3048:	8c52                	mv	s8,s4
    304a:	0c35                	addi	s8,s8,13
    304c:	0001                	nop
    304e:	8639                	srai	a2,a2,0xe
    3050:	0321bb33          	mulhu	s6,gp,s2
    3054:	0355eeb3          	rem	t4,a1,s5
    3058:	8aed                	andi	a3,a3,27
    305a:	8dfd                	and	a1,a1,a5
    305c:	012cac33          	slt	s8,s9,s2
    3060:	80a9                	srli	s1,s1,0xa
    3062:	0390f7b3          	remu	a5,ra,s9
    3066:	8d51                	or	a0,a0,a2
    3068:	41555c33          	sra	s8,a0,s5
    306c:	681d                	lui	a6,0x7
    306e:	003f3eb3          	sltu	t4,t5,gp
    3072:	0001                	nop
    3074:	0001                	nop
    3076:	033c6fb3          	rem	t6,s8,s3
    307a:	4a05                	li	s4,1
    307c:	0230b633          	mulhu	a2,ra,gp
    3080:	02aca033          	mulhsu	zero,s9,a0
    3084:	cf9f0193          	addi	gp,t5,-775 # 89fd1cf9 <_kernel_instr_end+0x89fc4e5d>
    3088:	01134e33          	xor	t3,t1,a7
    308c:	022decb3          	rem	s9,s11,sp
    3090:	033b6433          	rem	s0,s6,s3
    3094:	01a41d33          	sll	s10,s0,s10
    3098:	03eec2b3          	div	t0,t4,t5
    309c:	0001                	nop
    309e:	00a2d493          	srli	s1,t0,0xa
    30a2:	03af3433          	mulhu	s0,t5,s10
    30a6:	410a0933          	sub	s2,s4,a6
    30aa:	41f98c33          	sub	s8,s3,t6
    30ae:	11efc393          	xori	t2,t6,286
    30b2:	611d                	addi	sp,sp,416
    30b4:	eb602893          	slti	a7,zero,-330
    30b8:	027b2633          	mulhsu	a2,s6,t2
    30bc:	2a42fe13          	andi	t3,t0,676
    30c0:	01b5c233          	xor	tp,a1,s11
    30c4:	41105fb3          	sra	t6,zero,a7
    30c8:	016efbb3          	and	s7,t4,s6
    30cc:	617d                	addi	sp,sp,496
    30ce:	97ca                	add	a5,a5,s2
    30d0:	fe996613          	ori	a2,s2,-23
    30d4:	025dae33          	mulhsu	t3,s11,t0
    30d8:	01f5f533          	and	a0,a1,t6
    30dc:	016beb33          	or	s6,s7,s6
    30e0:	01bdfa33          	and	s4,s11,s11
    30e4:	80f90f17          	auipc	t5,0x80f90
    30e8:	00719213          	slli	tp,gp,0x7
    30ec:	05d6                	slli	a1,a1,0x15
    30ee:	40030333          	sub	t1,t1,zero
    30f2:	9bea                	add	s7,s7,s10
    30f4:	03ef3333          	mulhu	t1,t5,t5
    30f8:	0096cab3          	xor	s5,a3,s1
    30fc:	01d81393          	slli	t2,a6,0x1d
    3100:	41dcda93          	srai	s5,s9,0x1d
    3104:	16238e93          	addi	t4,t2,354 # 5f992bac <_kernel_instr_end+0x5f985d10>
    3108:	01875ab3          	srl	s5,a4,s8
    310c:	40cf8a33          	sub	s4,t6,a2
    3110:	cf7e4a93          	xori	s5,t3,-777
    3114:	41b45b33          	sra	s6,s0,s11
    3118:	03f963b3          	rem	t2,s2,t6
    311c:	03daa133          	mulhsu	sp,s5,t4
    3120:	40e30533          	sub	a0,t1,a4
    3124:	0381cf33          	div	t5,gp,s8
    3128:	8d51                	or	a0,a0,a2
    312a:	e15c7f93          	andi	t6,s8,-491
    312e:	001506b3          	add	a3,a0,ra
    3132:	03ae46b3          	div	a3,t3,s10
    3136:	db083297          	auipc	t0,0xdb083
    313a:	203e0093          	addi	ra,t3,515
    313e:	0001                	nop
    3140:	8f99                	sub	a5,a5,a4
    3142:	03c1                	addi	t2,t2,16
    3144:	86d5                	srai	a3,a3,0x15
    3146:	00039793          	slli	a5,t2,0x0
    314a:	0357ab33          	mulhsu	s6,a5,s5
    314e:	b48433b7          	lui	t2,0xb4843
    3152:	01c2                	slli	gp,gp,0x10
    3154:	01ef4833          	xor	a6,t5,t5
    3158:	00825a13          	srli	s4,tp,0x8
    315c:	01b167b3          	or	a5,sp,s11
    3160:	015120b3          	slt	ra,sp,s5
    3164:	8c11                	sub	s0,s0,a2
    3166:	014401b3          	add	gp,s0,s4
    316a:	0a3a                	slli	s4,s4,0xe
    316c:	63e5                	lui	t2,0x19
    316e:	0337f5b3          	remu	a1,a5,s3
    3172:	997d                	andi	a0,a0,-1
    3174:	83dd                	srli	a5,a5,0x17
    3176:	005fc6b3          	xor	a3,t6,t0
    317a:	01e19813          	slli	a6,gp,0x1e
    317e:	41d4d333          	sra	t1,s1,t4
    3182:	4851                	li	a6,20
    3184:	41708bb3          	sub	s7,ra,s7
    3188:	13cdba13          	sltiu	s4,s11,316
    318c:	9dd6ffb7          	lui	t6,0x9dd6f
    3190:	2eecae93          	slti	t4,s9,750
    3194:	0045f033          	and	zero,a1,tp
    3198:	00655413          	srli	s0,a0,0x6
    319c:	9c56                	add	s8,s8,s5
    319e:	00045333          	srl	t1,s0,zero
    31a2:	40b45bb3          	sra	s7,s0,a1
    31a6:	8e15                	sub	a2,a2,a3
    31a8:	01b06433          	or	s0,zero,s11
    31ac:	018e33b3          	sltu	t2,t3,s8
    31b0:	98fd                	andi	s1,s1,-1
    31b2:	0264df33          	divu	t5,s1,t1
    31b6:	8e15                	sub	a2,a2,a3
    31b8:	002a3d33          	sltu	s10,s4,sp
    31bc:	009f45b3          	xor	a1,t5,s1
    31c0:	00501fb3          	sll	t6,zero,t0
    31c4:	c6648213          	addi	tp,s1,-922 # 1dc66 <_kernel_instr_end+0x10dca>
    31c8:	02cd8cb3          	mul	s9,s11,a2
    31cc:	03c44d33          	div	s10,s0,t3
    31d0:	8ff5                	and	a5,a5,a3
    31d2:	349ec393          	xori	t2,t4,841
    31d6:	03c95f33          	divu	t5,s2,t3
    31da:	029df513          	andi	a0,s11,41
    31de:	8e59                	or	a2,a2,a4
    31e0:	50fd                	li	ra,-1
    31e2:	5ffd                	li	t6,-1
    31e4:	86e9                	srai	a3,a3,0x1a
    31e6:	8f36                	mv	t5,a3
    31e8:	8675                	srai	a2,a2,0x1d
    31ea:	03165e33          	divu	t3,a2,a7
    31ee:	02759eb3          	mulh	t4,a1,t2
    31f2:	01b9c533          	xor	a0,s3,s11
    31f6:	8525                	srai	a0,a0,0x9
    31f8:	0001                	nop
    31fa:	3a7cfc93          	andi	s9,s9,935
    31fe:	caa2fc13          	andi	s8,t0,-854
    3202:	0001                	nop
    3204:	012e6e33          	or	t3,t3,s2
    3208:	2729f1b7          	lui	gp,0x2729f
    320c:	00a2dcb3          	srl	s9,t0,a0
    3210:	e6517813          	andi	a6,sp,-411
    3214:	f9ccab13          	slti	s6,s9,-100
    3218:	0086bf33          	sltu	t5,a3,s0
    321c:	0288ee33          	rem	t3,a7,s0
    3220:	8fdd                	or	a5,a5,a5
    3222:	c8614c93          	xori	s9,sp,-890
    3226:	717d                	addi	sp,sp,-16
    3228:	023e9233          	mulh	tp,t4,gp
    322c:	8efd                	and	a3,a3,a5
    322e:	0027ab33          	slt	s6,a5,sp
    3232:	004a5a93          	srli	s5,s4,0x4
    3236:	01bd1513          	slli	a0,s10,0x1b
    323a:	ecdfac13          	slti	s8,t6,-307
    323e:	8d99                	sub	a1,a1,a4
    3240:	02babfb3          	mulhu	t6,s5,a1
    3244:	8da5                	xor	a1,a1,s1
    3246:	8ddd                	or	a1,a1,a5
    3248:	987d                	andi	s0,s0,-1
    324a:	6105                	addi	sp,sp,32
    324c:	0001                	nop
    324e:	dc5d8e93          	addi	t4,s11,-571 # 1e93 <_start-0x16b>
    3252:	0074f4b3          	and	s1,s1,t2
    3256:	0309cd33          	div	s10,s3,a6
    325a:	036e74b3          	remu	s1,t3,s6
    325e:	035f6333          	rem	t1,t5,s5
    3262:	00b0feb3          	and	t4,ra,a1
    3266:	01687133          	and	sp,a6,s6
    326a:	03366333          	rem	t1,a2,s3
    326e:	01cd8433          	add	s0,s11,t3
    3272:	41d6dfb3          	sra	t6,a3,t4
    3276:	01a53b33          	sltu	s6,a0,s10
    327a:	05e5                	addi	a1,a1,25
    327c:	018fd3b3          	srl	t2,t6,s8
    3280:	008e1133          	sll	sp,t3,s0
    3284:	840d                	srai	s0,s0,0x3
    3286:	58fd                	li	a7,-1
    3288:	002ef033          	and	zero,t4,sp
    328c:	d1ee2313          	slti	t1,t3,-738
    3290:	02f1ce33          	div	t3,gp,a5
    3294:	01a0abb3          	slt	s7,ra,s10
    3298:	0bb1                	addi	s7,s7,12
    329a:	03f427b3          	mulhsu	a5,s0,t6
    329e:	03e47a33          	remu	s4,s0,t5
    32a2:	c090af13          	slti	t5,ra,-1015
    32a6:	41f55213          	srai	tp,a0,0x1f
    32aa:	6b8d                	lui	s7,0x3
    32ac:	371b2c13          	slti	s8,s6,881
    32b0:	86e1                	srai	a3,a3,0x18
    32b2:	c7e77bb7          	lui	s7,0xc7e77
    32b6:	02acffb3          	remu	t6,s9,a0
    32ba:	8541                	srai	a0,a0,0x10
    32bc:	8c85                	sub	s1,s1,s1
    32be:	00e9d933          	srl	s2,s3,a4
    32c2:	23122913          	slti	s2,tp,561
    32c6:	03b53133          	mulhu	sp,a0,s11
    32ca:	00043633          	sltu	a2,s0,zero
    32ce:	0120de13          	srli	t3,ra,0x12
    32d2:	03a14b33          	div	s6,sp,s10
    32d6:	0001                	nop
    32d8:	0001                	nop
    32da:	8e65                	and	a2,a2,s1
    32dc:	8e9d                	sub	a3,a3,a5
    32de:	403c0333          	sub	t1,s8,gp
    32e2:	892d                	andi	a0,a0,11
    32e4:	0126aab3          	slt	s5,a3,s2
    32e8:	409edc33          	sra	s8,t4,s1
    32ec:	8d1d                	sub	a0,a0,a5
    32ee:	8f99                	sub	a5,a5,a4
    32f0:	9201b2b7          	lui	t0,0x9201b
    32f4:	01d89c33          	sll	s8,a7,t4
    32f8:	0091da13          	srli	s4,gp,0x9
    32fc:	0001                	nop
    32fe:	01d6da93          	srli	s5,a3,0x1d
    3302:	8c95                	sub	s1,s1,a3
    3304:	6119                	addi	sp,sp,384
    3306:	8d49                	or	a0,a0,a0
    3308:	40495633          	sra	a2,s2,tp
    330c:	8eb1                	xor	a3,a3,a2
    330e:	0001                	nop
    3310:	987d                	andi	s0,s0,-1
    3312:	005f00b3          	add	ra,t5,t0
    3316:	d1a2a413          	slti	s0,t0,-742
    331a:	40025033          	sra	zero,tp,zero
    331e:	8cb1                	xor	s1,s1,a2
    3320:	0053ceb3          	xor	t4,t2,t0
    3324:	9bfd                	andi	a5,a5,-1
    3326:	02815133          	divu	sp,sp,s0
    332a:	027ead33          	mulhsu	s10,t4,t2
    332e:	02940eb3          	mul	t4,s0,s1
    3332:	0001                	nop
    3334:	486d                	li	a6,27
    3336:	8c75                	and	s0,s0,a3
    3338:	4094d633          	sra	a2,s1,s1
    333c:	0377fa33          	remu	s4,a5,s7
    3340:	03524bb3          	div	s7,tp,s5
    3344:	40dc5fb3          	sra	t6,s8,a3
    3348:	e2ae2413          	slti	s0,t3,-470
    334c:	032895b3          	mulh	a1,a7,s2
    3350:	006886b3          	add	a3,a7,t1
    3354:	8c75                	and	s0,s0,a3
    3356:	0278f4b3          	remu	s1,a7,t2
    335a:	029e67b3          	rem	a5,t3,s1
    335e:	01006e33          	or	t3,zero,a6
    3362:	013cd913          	srli	s2,s9,0x13
    3366:	8cd1                	or	s1,s1,a2
    3368:	86b9                	srai	a3,a3,0xe
    336a:	0193f933          	and	s2,t2,s9
    336e:	8e75                	and	a2,a2,a3
    3370:	02dd1eb3          	mulh	t4,s10,a3
    3374:	1ea26b93          	ori	s7,tp,490
    3378:	017b1393          	slli	t2,s6,0x17
    337c:	a920f317          	auipc	t1,0xa920f
    3380:	037524b3          	mulhsu	s1,a0,s7
    3384:	419d00b3          	sub	ra,s10,s9
    3388:	034095b3          	mulh	a1,ra,s4
    338c:	02c36e33          	rem	t3,t1,a2
    3390:	cb8cc893          	xori	a7,s9,-840
    3394:	0022aa33          	slt	s4,t0,sp
    3398:	40250633          	sub	a2,a0,sp
    339c:	00948433          	add	s0,s1,s1
    33a0:	0055c933          	xor	s2,a1,t0
    33a4:	009c5c33          	srl	s8,s8,s1
    33a8:	dd0cac13          	slti	s8,s9,-560
    33ac:	028d96b3          	mulh	a3,s11,s0
    33b0:	818e                	mv	gp,gp
    33b2:	014387b3          	add	a5,t2,s4
    33b6:	021504b3          	mul	s1,a0,ra
    33ba:	0001                	nop
    33bc:	9b6a2e17          	auipc	t3,0x9b6a2
    33c0:	8465                	srai	s0,s0,0x19
    33c2:	4409                	li	s0,2
    33c4:	c5102393          	slti	t2,zero,-943
    33c8:	00015f33          	srl	t5,sp,zero
    33cc:	00e2c4b3          	xor	s1,t0,a4
    33d0:	00530633          	add	a2,t1,t0
    33d4:	8d81                	sub	a1,a1,s0
    33d6:	02bbb633          	mulhu	a2,s7,a1
    33da:	41b0d493          	srai	s1,ra,0x1b
    33de:	8d81                	sub	a1,a1,s0
    33e0:	0145d0b3          	srl	ra,a1,s4
    33e4:	8fcd                	or	a5,a5,a1
    33e6:	6169                	addi	sp,sp,208
    33e8:	00be56b3          	srl	a3,t3,a1
    33ec:	0001                	nop
    33ee:	8079                	srli	s0,s0,0x1e
    33f0:	6f51                	lui	t5,0x14
    33f2:	0001                	nop
    33f4:	0ea5                	addi	t4,t4,9
    33f6:	16bae313          	ori	t1,s5,363
    33fa:	0fde                	slli	t6,t6,0x17
    33fc:	25ca3917          	auipc	s2,0x25ca3
    3400:	8241                	srli	a2,a2,0x10
    3402:	0064d8b3          	srl	a7,s1,t1
    3406:	010861b3          	or	gp,a6,a6
    340a:	01b06eb3          	or	t4,zero,s11
    340e:	997d                	andi	a0,a0,-1
    3410:	8279                	srli	a2,a2,0x1e
    3412:	4e8d                	li	t4,3
    3414:	310a6113          	ori	sp,s4,784
    3418:	34d2fb93          	andi	s7,t0,845
    341c:	8dd5                	or	a1,a1,a3
    341e:	01875a13          	srli	s4,a4,0x18
    3422:	02d0ecb3          	rem	s9,ra,a3
    3426:	6155                	addi	sp,sp,304
    3428:	f099cd13          	xori	s10,s3,-247
    342c:	0348d433          	divu	s0,a7,s4
    3430:	01a5deb3          	srl	t4,a1,s10
    3434:	00539e93          	slli	t4,t2,0x5
    3438:	031330b3          	mulhu	ra,t1,a7
    343c:	8eb5                	xor	a3,a3,a3
    343e:	02ea14b3          	mulh	s1,s4,a4
    3442:	8bb2                	mv	s7,a2
    3444:	01681413          	slli	s0,a6,0x16
    3448:	8dc1                	or	a1,a1,s0
    344a:	be605a37          	lui	s4,0xbe605
    344e:	01cf5613          	srli	a2,t5,0x1c
    3452:	00595533          	srl	a0,s2,t0
    3456:	2ff96093          	ori	ra,s2,767
    345a:	00305313          	srli	t1,zero,0x3
    345e:	86f5                	srai	a3,a3,0x1d
    3460:	8489                	srai	s1,s1,0x2
    3462:	2cd17a13          	andi	s4,sp,717
    3466:	004d7433          	and	s0,s10,tp
    346a:	01665133          	srl	sp,a2,s6
    346e:	717d                	addi	sp,sp,-16
    3470:	01671233          	sll	tp,a4,s6
    3474:	00b8a433          	slt	s0,a7,a1
    3478:	0e75                	addi	t3,t3,29
    347a:	02a3abb3          	mulhsu	s7,t2,a0
    347e:	8649                	srai	a2,a2,0x12
    3480:	352c4c13          	xori	s8,s8,850
    3484:	0559ad13          	slti	s10,s3,85
    3488:	050e                	slli	a0,a0,0x3
    348a:	00c76933          	or	s2,a4,a2
    348e:	0001                	nop
    3490:	1139c593          	xori	a1,s3,275
    3494:	0087dfb3          	srl	t6,a5,s0
    3498:	82a1                	srli	a3,a3,0x8
    349a:	02c56533          	rem	a0,a0,a2
    349e:	0037f933          	and	s2,a5,gp
    34a2:	8e05                	sub	a2,a2,s1
    34a4:	8bad                	andi	a5,a5,11
    34a6:	039516b3          	mulh	a3,a0,s9
    34aa:	903513b7          	lui	t2,0x90351
    34ae:	02904fb3          	div	t6,zero,s1
    34b2:	0001                	nop
    34b4:	6111                	addi	sp,sp,256
    34b6:	0001                	nop
    34b8:	8cb1                	xor	s1,s1,a2
    34ba:	40b58233          	sub	tp,a1,a1
    34be:	018876b3          	and	a3,a6,s8
    34c2:	01b9a3b3          	slt	t2,s3,s11
    34c6:	717d                	addi	sp,sp,-16
    34c8:	01d2e933          	or	s2,t0,t4
    34cc:	8df1                	and	a1,a1,a2
    34ce:	8eb5                	xor	a3,a3,a3
    34d0:	00e8dfb3          	srl	t6,a7,a4
    34d4:	03d775b3          	remu	a1,a4,t4
    34d8:	8abe                	mv	s5,a5
    34da:	416a5133          	sra	sp,s4,s6
    34de:	febf4d13          	xori	s10,t5,-21
    34e2:	1bfd                	addi	s7,s7,-1
    34e4:	0377e633          	rem	a2,a5,s7
    34e8:	0298da33          	divu	s4,a7,s1
    34ec:	e83cf793          	andi	a5,s9,-381
    34f0:	00449193          	slli	gp,s1,0x4
    34f4:	84d5                	srai	s1,s1,0x15
    34f6:	4fe1                	li	t6,24
    34f8:	0f5e                	slli	t5,t5,0x17
    34fa:	3cd73b93          	sltiu	s7,a4,973
    34fe:	02828f33          	mul	t5,t0,s0
    3502:	00e09c13          	slli	s8,ra,0xe
    3506:	01662b33          	slt	s6,a2,s6
    350a:	6d2d                	lui	s10,0xb
    350c:	6e11                	lui	t3,0x4
    350e:	deb23693          	sltiu	a3,tp,-533
    3512:	81e5                	srli	a1,a1,0x19
    3514:	fc460d13          	addi	s10,a2,-60
    3518:	8c59                	or	s0,s0,a4
    351a:	013cdeb3          	srl	t4,s9,s3
    351e:	9afd                	andi	a3,a3,-1
    3520:	40785c93          	srai	s9,a6,0x7
    3524:	0001                	nop
    3526:	4096d033          	sra	zero,a3,s1
    352a:	00b66833          	or	a6,a2,a1
    352e:	0369e3b3          	rem	t2,s3,s6
    3532:	030f4a33          	div	s4,t5,a6
    3536:	3155ba13          	sltiu	s4,a1,789
    353a:	894e                	mv	s2,s3
    353c:	8586                	mv	a1,ra
    353e:	38ee9d17          	auipc	s10,0x38ee9
    3542:	0065e833          	or	a6,a1,t1
    3546:	8c55                	or	s0,s0,a3
    3548:	1622a593          	slti	a1,t0,354
    354c:	967a                	add	a2,a2,t5
    354e:	03fa6633          	rem	a2,s4,t6
    3552:	01079813          	slli	a6,a5,0x10
    3556:	ed48f337          	lui	t1,0xed48f
    355a:	0f704f13          	xori	t5,zero,247
    355e:	415bd613          	srai	a2,s7,0x15
    3562:	0600e913          	ori	s2,ra,96
    3566:	0354cd33          	div	s10,s1,s5
    356a:	03a15cb3          	divu	s9,sp,s10
    356e:	91ca                	add	gp,gp,s2
    3570:	02319c33          	mulh	s8,gp,gp
    3574:	3fe8c013          	xori	zero,a7,1022
    3578:	031afcb3          	remu	s9,s5,a7
    357c:	00179913          	slli	s2,a5,0x1
    3580:	8a2d                	andi	a2,a2,11
    3582:	003a1933          	sll	s2,s4,gp
    3586:	90d990b7          	lui	ra,0x90d99
    358a:	d8900793          	li	a5,-631
    358e:	026ffe33          	remu	t3,t6,t1
    3592:	022bccb3          	div	s9,s7,sp
    3596:	8ef9                	and	a3,a3,a4
    3598:	027433b3          	mulhu	t2,s0,t2
    359c:	01c0b5b3          	sltu	a1,ra,t3
    35a0:	82b1                	srli	a3,a3,0xc
    35a2:	232b6493          	ori	s1,s6,562
    35a6:	099e7293          	andi	t0,t3,153
    35aa:	8c55                	or	s0,s0,a3
    35ac:	0fa68d17          	auipc	s10,0xfa68
    35b0:	0001                	nop
    35b2:	e412ea93          	ori	s5,t0,-447
    35b6:	02e2c333          	div	t1,t0,a4
    35ba:	01581233          	sll	tp,a6,s5
    35be:	41775113          	srai	sp,a4,0x17
    35c2:	197d                	addi	s2,s2,-1
    35c4:	41b950b3          	sra	ra,s2,s11
    35c8:	cfb43a93          	sltiu	s5,s0,-773
    35cc:	1e7d                	addi	t3,t3,-1
    35ce:	01e7cfb3          	xor	t6,a5,t5
    35d2:	0001                	nop
    35d4:	6b1d                	lui	s6,0x7
    35d6:	0213a833          	mulhsu	a6,t2,ra
    35da:	02cc0cb3          	mul	s9,s8,a2
    35de:	416b0c33          	sub	s8,s6,s6
    35e2:	65d5                	lui	a1,0x15
    35e4:	eb5a6f13          	ori	t5,s4,-331
    35e8:	96ba                	add	a3,a3,a4
    35ea:	0364bf33          	mulhu	t5,s1,s6
    35ee:	ec538b13          	addi	s6,t2,-315 # 90350ec5 <_kernel_instr_end+0x90344029>
    35f2:	009d9293          	slli	t0,s11,0x9
    35f6:	daaf8d13          	addi	s10,t6,-598 # 9dd6edaa <_kernel_instr_end+0x9dd61f0e>
    35fa:	2ee40513          	addi	a0,s0,750
    35fe:	01b86433          	or	s0,a6,s11
    3602:	8c75                	and	s0,s0,a3
    3604:	02ca5cb3          	divu	s9,s4,a2
    3608:	00456913          	ori	s2,a0,4
    360c:	36e27593          	andi	a1,tp,878
    3610:	40905cb3          	sra	s9,zero,s1
    3614:	8da5                	xor	a1,a1,s1
    3616:	195fb313          	sltiu	t1,t6,405
    361a:	dddaba93          	sltiu	s5,s5,-547
    361e:	6119                	addi	sp,sp,384
    3620:	01959213          	slli	tp,a1,0x19
    3624:	8f89                	sub	a5,a5,a0
    3626:	8e99                	sub	a3,a3,a4
    3628:	8e4d                	or	a2,a2,a1
    362a:	00949333          	sll	t1,s1,s1
    362e:	008ad3b3          	srl	t2,s5,s0
    3632:	0398ea33          	rem	s4,a7,s9
    3636:	8d39                	xor	a0,a0,a4
    3638:	137d                	addi	t1,t1,-1
    363a:	8e7d                	and	a2,a2,a5
    363c:	034d61b3          	rem	gp,s10,s4
    3640:	0001                	nop
    3642:	9e22                	add	t3,t3,s0
    3644:	86fd                	srai	a3,a3,0x1f
    3646:	02459ab3          	mulh	s5,a1,tp
    364a:	28a24797          	auipc	a5,0x28a24
    364e:	2ab82493          	slti	s1,a6,683
    3652:	0057e933          	or	s2,a5,t0
    3656:	01729113          	slli	sp,t0,0x17
    365a:	021efc33          	remu	s8,t4,ra
    365e:	ea3db593          	sltiu	a1,s11,-349
    3662:	034bdd33          	divu	s10,s7,s4
    3666:	81ad                	srli	a1,a1,0xb
    3668:	fe3af813          	andi	a6,s5,-29
    366c:	038afeb3          	remu	t4,s5,s8
    3670:	0001                	nop
    3672:	8c85                	sub	s1,s1,s1
    3674:	41d6db13          	srai	s6,a3,0x1d
    3678:	0001                	nop
    367a:	05b1                	addi	a1,a1,12
    367c:	01dee7b3          	or	a5,t4,t4
    3680:	413bd133          	sra	sp,s7,s3
    3684:	72fb6117          	auipc	sp,0x72fb6
    3688:	8e95                	sub	a3,a3,a3
    368a:	03ce8333          	mul	t1,t4,t3
    368e:	0053beb3          	sltu	t4,t2,t0
    3692:	00881333          	sll	t1,a6,s0
    3696:	011650b3          	srl	ra,a2,a7
    369a:	040f3393          	sltiu	t2,t5,64
    369e:	6129                	addi	sp,sp,192
    36a0:	e9a5f493          	andi	s1,a1,-358
    36a4:	30153e97          	auipc	t4,0x30153
    36a8:	0cefc813          	xori	a6,t6,206
    36ac:	8965                	andi	a0,a0,25
    36ae:	41f8d2b3          	sra	t0,a7,t6
    36b2:	01801293          	slli	t0,zero,0x18
    36b6:	5a2091b7          	lui	gp,0x5a209
    36ba:	403fd313          	srai	t1,t6,0x3
    36be:	0001                	nop
    36c0:	e68cb013          	sltiu	zero,s9,-408
    36c4:	017e                	slli	sp,sp,0x1f
    36c6:	00799313          	slli	t1,s3,0x7
    36ca:	0001                	nop
    36cc:	58fd                	li	a7,-1
    36ce:	011c3133          	sltu	sp,s8,a7
    36d2:	0156f0b3          	and	ra,a3,s5
    36d6:	636d                	lui	t1,0x1b
    36d8:	717d                	addi	sp,sp,-16
    36da:	02122eb3          	mulhsu	t4,tp,ra
    36de:	6eb9                	lui	t4,0xe
    36e0:	679d                	lui	a5,0x7
    36e2:	412d5933          	sra	s2,s10,s2
    36e6:	8ff1                	and	a5,a5,a2
    36e8:	8dd9                	or	a1,a1,a4
    36ea:	03472e33          	mulhsu	t3,a4,s4
    36ee:	0228d3b3          	divu	t2,a7,sp
    36f2:	157eb913          	sltiu	s2,t4,343
    36f6:	1efd                	addi	t4,t4,-1
    36f8:	023460b3          	rem	ra,s0,gp
    36fc:	8d91                	sub	a1,a1,a2
    36fe:	00e15533          	srl	a0,sp,a4
    3702:	408f0333          	sub	t1,t5,s0
    3706:	03ba5e33          	divu	t3,s4,s11
    370a:	985e                	add	a6,a6,s7
    370c:	023e4133          	div	sp,t3,gp
    3710:	f8c20213          	addi	tp,tp,-116 # 49ee3f8c <_kernel_instr_end+0x49ed70f0>
    3714:	40d63e37          	lui	t3,0x40d63
    3718:	131d3793          	sltiu	a5,s10,305
    371c:	a5465d17          	auipc	s10,0xa5465
    3720:	d0be4793          	xori	a5,t3,-757
    3724:	019e77b3          	and	a5,t3,s9
    3728:	01c69533          	sll	a0,a3,t3
    372c:	817efc97          	auipc	s9,0x817ef
    3730:	e2467513          	andi	a0,a2,-476
    3734:	92aa                	add	t0,t0,a0
    3736:	640d                	lui	s0,0x3
    3738:	013c9b33          	sll	s6,s9,s3
    373c:	717d                	addi	sp,sp,-16
    373e:	00ad9613          	slli	a2,s11,0xa
    3742:	02931e33          	mulh	t3,t1,s1
    3746:	8ba9                	andi	a5,a5,10
    3748:	0b3ca913          	slti	s2,s9,179
    374c:	8bf5                	andi	a5,a5,29
    374e:	40e9dc13          	srai	s8,s3,0xe
    3752:	809d                	srli	s1,s1,0x7
    3754:	028a1233          	mulh	tp,s4,s0
    3758:	1d7d                	addi	s10,s10,-1
    375a:	8dd1                	or	a1,a1,a2
    375c:	0297ccb3          	div	s9,a5,s1
    3760:	98e6                	add	a7,a7,s9
    3762:	5d7d                	li	s10,-1
    3764:	86bd                	srai	a3,a3,0xf
    3766:	0398dc33          	divu	s8,a7,s9
    376a:	004e0133          	add	sp,t3,tp
    376e:	03668333          	mul	t1,a3,s6
    3772:	03dcd233          	divu	tp,s9,t4
    3776:	00531d13          	slli	s10,t1,0x5
    377a:	01dac133          	xor	sp,s5,t4
    377e:	450d                	li	a0,3
    3780:	41aad793          	srai	a5,s5,0x1a
    3784:	597d                	li	s2,-1
    3786:	416f5b93          	srai	s7,t5,0x16
    378a:	02c64cb3          	div	s9,a2,a2
    378e:	0229ae33          	mulhsu	t3,s3,sp
    3792:	002bab33          	slt	s6,s7,sp
    3796:	8ec9                	or	a3,a3,a0
    3798:	6bed                	lui	s7,0x1b
    379a:	0276d933          	divu	s2,a3,t2
    379e:	8c32                	mv	s8,a2
    37a0:	40bb8fb3          	sub	t6,s7,a1
    37a4:	01e50bb3          	add	s7,a0,t5
    37a8:	8789                	srai	a5,a5,0x2
    37aa:	005490b3          	sll	ra,s1,t0
    37ae:	9bfd                	andi	a5,a5,-1
    37b0:	00159d33          	sll	s10,a1,ra
    37b4:	0cfb6413          	ori	s0,s6,207
    37b8:	8ce9                	and	s1,s1,a0
    37ba:	46f5                	li	a3,29
    37bc:	02fa5233          	divu	tp,s4,a5
    37c0:	283b0793          	addi	a5,s6,643 # 7283 <_main+0x51ad>
    37c4:	026277b3          	remu	a5,tp,t1
    37c8:	00de5f93          	srli	t6,t3,0xd
    37cc:	40ecdcb3          	sra	s9,s9,a4
    37d0:	033c3c33          	mulhu	s8,s8,s3
    37d4:	007c28b3          	slt	a7,s8,t2
    37d8:	41c9                	li	gp,18
    37da:	02cade33          	divu	t3,s5,a2
    37de:	00625893          	srli	a7,tp,0x6
    37e2:	8d25                	xor	a0,a0,s1
    37e4:	017544b3          	xor	s1,a0,s7
    37e8:	23e66893          	ori	a7,a2,574
    37ec:	01da8bb3          	add	s7,s5,t4
    37f0:	00e21fb3          	sll	t6,tp,a4
    37f4:	c8393813          	sltiu	a6,s2,-893
    37f8:	01bbaab3          	slt	s5,s7,s11
    37fc:	8d85                	sub	a1,a1,s1
    37fe:	fb29f113          	andi	sp,s3,-78
    3802:	01ff66b3          	or	a3,t5,t6
    3806:	40ab0333          	sub	t1,s6,a0
    380a:	8c41                	or	s0,s0,s0
    380c:	410d0bb3          	sub	s7,s10,a6
    3810:	8a8d                	andi	a3,a3,3
    3812:	304d2313          	slti	t1,s10,772
    3816:	8c81                	sub	s1,s1,s0
    3818:	4012d333          	sra	t1,t0,ra
    381c:	414ed093          	srai	ra,t4,0x14
    3820:	823e                	mv	tp,a5
    3822:	8fb5                	xor	a5,a5,a3
    3824:	037bfe33          	remu	t3,s7,s7
    3828:	2468e1b7          	lui	gp,0x2468e
    382c:	6165                	addi	sp,sp,112
    382e:	597d                	li	s2,-1
    3830:	6171                	addi	sp,sp,336
    3832:	03caaf33          	mulhsu	t5,s5,t3
    3836:	03b81433          	mulh	s0,a6,s11
    383a:	04acae13          	slti	t3,s9,74
    383e:	02839e33          	mulh	t3,t2,s0
    3842:	0125de33          	srl	t3,a1,s2
    3846:	02baecb3          	rem	s9,s5,a1
    384a:	037d4f33          	div	t5,s10,s7
    384e:	717d                	addi	sp,sp,-16
    3850:	8a61                	andi	a2,a2,24
    3852:	064a                	slli	a2,a2,0x12
    3854:	883d                	andi	s0,s0,15
    3856:	8e75                	and	a2,a2,a3
    3858:	c4524597          	auipc	a1,0xc4524
    385c:	08aa                	slli	a7,a7,0xa
    385e:	01fbdb33          	srl	s6,s7,t6
    3862:	03846fb3          	rem	t6,s0,s8
    3866:	8a52                	mv	s4,s4
    3868:	1c40f213          	andi	tp,ra,452
    386c:	8aaa                	mv	s5,a0
    386e:	01ac2633          	slt	a2,s8,s10
    3872:	00fb4e33          	xor	t3,s6,a5
    3876:	00434f33          	xor	t5,t1,tp
    387a:	8269                	srli	a2,a2,0x1a
    387c:	022acb33          	div	s6,s5,sp
    3880:	2c370593          	addi	a1,a4,707
    3884:	18fd                	addi	a7,a7,-1
    3886:	01688933          	add	s2,a7,s6
    388a:	0001                	nop
    388c:	0001                	nop
    388e:	f9dfb813          	sltiu	a6,t6,-99
    3892:	23a4e493          	ori	s1,s1,570
    3896:	6e2d                	lui	t3,0xb
    3898:	01feb033          	sltu	zero,t4,t6
    389c:	28896493          	ori	s1,s2,648
    38a0:	86c9                	srai	a3,a3,0x12
    38a2:	014934b3          	sltu	s1,s2,s4
    38a6:	0001                	nop
    38a8:	8129                	srli	a0,a0,0xa
    38aa:	41355013          	srai	zero,a0,0x13
    38ae:	8c79                	and	s0,s0,a4
    38b0:	8851                	andi	s0,s0,20
    38b2:	2bec3137          	lui	sp,0x2bec3
    38b6:	8ea9                	xor	a3,a3,a0
    38b8:	0001                	nop
    38ba:	0c807593          	andi	a1,zero,200
    38be:	667d                	lui	a2,0x1f
    38c0:	010ad933          	srl	s2,s5,a6
    38c4:	00e26633          	or	a2,tp,a4
    38c8:	e1c02413          	slti	s0,zero,-484
    38cc:	9afd                	andi	a3,a3,-1
    38ce:	032973b3          	remu	t2,s2,s2
    38d2:	011558b3          	srl	a7,a0,a7
    38d6:	84cd                	srai	s1,s1,0x13
    38d8:	0001                	nop
    38da:	85ca                	mv	a1,s2
    38dc:	401cd133          	sra	sp,s9,ra
    38e0:	20daf693          	andi	a3,s5,525
    38e4:	ffcac213          	xori	tp,s5,-4
    38e8:	01e9d113          	srli	sp,s3,0x1e
    38ec:	03991633          	mulh	a2,s2,s9
    38f0:	8d91                	sub	a1,a1,a2
    38f2:	00fa88b3          	add	a7,s5,a5
    38f6:	028d0633          	mul	a2,s10,s0
    38fa:	c54e6e93          	ori	t4,t3,-940
    38fe:	8d41                	or	a0,a0,s0
    3900:	037787b3          	mul	a5,a5,s7
    3904:	00696b33          	or	s6,s2,t1
    3908:	2420e393          	ori	t2,ra,578
    390c:	40cdd213          	srai	tp,s11,0xc
    3910:	404ade93          	srai	t4,s5,0x4
    3914:	02d24c33          	div	s8,tp,a3
    3918:	6a39                	lui	s4,0xe
    391a:	0219                	addi	tp,tp,6
    391c:	f46d3413          	sltiu	s0,s10,-186
    3920:	0144b0b3          	sltu	ra,s1,s4
    3924:	03ab2633          	mulhsu	a2,s6,s10
    3928:	6cb5                	lui	s9,0xd
    392a:	02d44c33          	div	s8,s0,a3
    392e:	0130f6b3          	and	a3,ra,s3
    3932:	01565293          	srli	t0,a2,0x15
    3936:	6e45                	lui	t3,0x11
    3938:	08e2                	slli	a7,a7,0x18
    393a:	3b39e513          	ori	a0,s3,947
    393e:	8c79                	and	s0,s0,a4
    3940:	68ed                	lui	a7,0x1b
    3942:	8fb1                	xor	a5,a5,a2
    3944:	9956                	add	s2,s2,s5
    3946:	02b3d8b3          	divu	a7,t2,a1
    394a:	403c0c33          	sub	s8,s8,gp
    394e:	034f7333          	remu	t1,t5,s4
    3952:	02d21f33          	mulh	t5,tp,a3
    3956:	8a2a                	mv	s4,a0
    3958:	02d36ab3          	rem	s5,t1,a3
    395c:	82fd                	srli	a3,a3,0x1f
    395e:	ed620393          	addi	t2,tp,-298 # fffffed6 <_kernel_instr_end+0xffff303a>
    3962:	37e57a93          	andi	s5,a0,894
    3966:	02b5ff33          	remu	t5,a1,a1
    396a:	40bc5313          	srai	t1,s8,0xb
    396e:	8c01                	sub	s0,s0,s0
    3970:	987d                	andi	s0,s0,-1
    3972:	006387b3          	add	a5,t2,t1
    3976:	8ed9                	or	a3,a3,a4
    3978:	8ed1                	or	a3,a3,a2
    397a:	08a2                	slli	a7,a7,0x8
    397c:	8ad9                	andi	a3,a3,22
    397e:	007cad33          	slt	s10,s9,t2
    3982:	016cb133          	sltu	sp,s9,s6
    3986:	8135                	srli	a0,a0,0xd
    3988:	01941233          	sll	tp,s0,s9
    398c:	dabeb493          	sltiu	s1,t4,-597
    3990:	c0970f93          	addi	t6,a4,-1015
    3994:	6145                	addi	sp,sp,48
    3996:	01d91bb3          	sll	s7,s2,t4
    399a:	27a9f793          	andi	a5,s3,634
    399e:	0112b933          	sltu	s2,t0,a7
    39a2:	85d5                	srai	a1,a1,0x15
    39a4:	8eb5                	xor	a3,a3,a3
    39a6:	8429                	srai	s0,s0,0xa
    39a8:	717d                	addi	sp,sp,-16
    39aa:	03208533          	mul	a0,ra,s2
    39ae:	8892                	mv	a7,tp
    39b0:	00f01013          	slli	zero,zero,0xf
    39b4:	6a65                	lui	s4,0x19
    39b6:	717d                	addi	sp,sp,-16
    39b8:	8ead                	xor	a3,a3,a1
    39ba:	41735113          	srai	sp,t1,0x17
    39be:	01f811b3          	sll	gp,a6,t6
    39c2:	00708233          	add	tp,ra,t2
    39c6:	89dd                	andi	a1,a1,23
    39c8:	01629233          	sll	tp,t0,s6
    39cc:	31aa1e97          	auipc	t4,0x31aa1
    39d0:	03253a33          	mulhu	s4,a0,s2
    39d4:	98fd                	andi	s1,s1,-1
    39d6:	0001                	nop
    39d8:	0b4bc213          	xori	tp,s7,180
    39dc:	f250c293          	xori	t0,ra,-219
    39e0:	00fb5513          	srli	a0,s6,0xf
    39e4:	03b8e7b3          	rem	a5,a7,s11
    39e8:	0075af33          	slt	t5,a1,t2
    39ec:	03c33a33          	mulhu	s4,t1,t3
    39f0:	2fd94893          	xori	a7,s2,765
    39f4:	02af5bb3          	divu	s7,t5,a0
    39f8:	0289ceb3          	div	t4,s3,s0
    39fc:	93ba                	add	t2,t2,a4
    39fe:	d3464813          	xori	a6,a2,-716
    3a02:	8c4d                	or	s0,s0,a1
    3a04:	00e87ab3          	and	s5,a6,a4
    3a08:	e74e7d13          	andi	s10,t3,-396
    3a0c:	0a05                	addi	s4,s4,1
    3a0e:	0304bbb3          	mulhu	s7,s1,a6
    3a12:	00bc1833          	sll	a6,s8,a1
    3a16:	09ecc597          	auipc	a1,0x9ecc
    3a1a:	8c55                	or	s0,s0,a3
    3a1c:	064e7813          	andi	a6,t3,100
    3a20:	41695613          	srai	a2,s2,0x16
    3a24:	26eeae13          	slti	t3,t4,622
    3a28:	010ceb33          	or	s6,s9,a6
    3a2c:	03b8a4b3          	mulhsu	s1,a7,s11
    3a30:	00a42433          	slt	s0,s0,a0
    3a34:	02799e33          	mulh	t3,s3,t2
    3a38:	03d7aab3          	mulhsu	s5,a5,t4
    3a3c:	417c5a93          	srai	s5,s8,0x17
    3a40:	1223ed13          	ori	s10,t2,290
    3a44:	038e6f33          	rem	t5,t3,s8
    3a48:	82c6                	mv	t0,a7
    3a4a:	c15f2c13          	slti	s8,t5,-1003
    3a4e:	8e7d                	and	a2,a2,a5
    3a50:	03f54bb3          	div	s7,a0,t6
    3a54:	00292eb3          	slt	t4,s2,sp
    3a58:	c58d3e93          	sltiu	t4,s10,-936
    3a5c:	1983c013          	xori	zero,t2,408
    3a60:	18fd                	addi	a7,a7,-1
    3a62:	02554833          	div	a6,a0,t0
    3a66:	2aa1a393          	slti	t2,gp,682
    3a6a:	02411fb3          	mulh	t6,sp,tp
    3a6e:	167d                	addi	a2,a2,-1
    3a70:	0045f833          	and	a6,a1,tp
    3a74:	01ac0517          	auipc	a0,0x1ac0
    3a78:	0094c1b3          	xor	gp,s1,s1
    3a7c:	717d                	addi	sp,sp,-16
    3a7e:	02019a33          	mulh	s4,gp,zero
    3a82:	03082933          	mulhsu	s2,a6,a6
    3a86:	8479                	srai	s0,s0,0x1e
    3a88:	86e9                	srai	a3,a3,0x1a
    3a8a:	01dbdab3          	srl	s5,s7,t4
    3a8e:	8d99                	sub	a1,a1,a4
    3a90:	8df9                	and	a1,a1,a4
    3a92:	fade8b13          	addi	s6,t4,-83 # 31aa4979 <_kernel_instr_end+0x31a97add>
    3a96:	81a1                	srli	a1,a1,0x8
    3a98:	ec327913          	andi	s2,tp,-317
    3a9c:	00ad5593          	srli	a1,s10,0xa
    3aa0:	027ac033          	div	zero,s5,t2
    3aa4:	6259                	lui	tp,0x16
    3aa6:	1efd                	addi	t4,t4,-1
    3aa8:	7b5ef297          	auipc	t0,0x7b5ef
    3aac:	8c21                	xor	s0,s0,s0
    3aae:	005d45b3          	xor	a1,s10,t0
    3ab2:	018694b3          	sll	s1,a3,s8
    3ab6:	34e5ce13          	xori	t3,a1,846
    3aba:	0040b5b3          	sltu	a1,ra,tp
    3abe:	0192abb3          	slt	s7,t0,s9
    3ac2:	8909                	andi	a0,a0,2
    3ac4:	9c1a                	add	s8,s8,t1
    3ac6:	87c9                	srai	a5,a5,0x12
    3ac8:	3fcddcb7          	lui	s9,0x3fcdd
    3acc:	60e9                	lui	ra,0x1a
    3ace:	8c91                	sub	s1,s1,a2
    3ad0:	0001                	nop
    3ad2:	0345c3b3          	div	t2,a1,s4
    3ad6:	03607833          	remu	a6,zero,s6
    3ada:	01799193          	slli	gp,s3,0x17
    3ade:	0cfbb613          	sltiu	a2,s7,207
    3ae2:	03f5b5b3          	mulhu	a1,a1,t6
    3ae6:	014cdab3          	srl	s5,s9,s4
    3aea:	4147d5b3          	sra	a1,a5,s4
    3aee:	d73b7013          	andi	zero,s6,-653
    3af2:	0046ab13          	slti	s6,a3,4
    3af6:	006f3033          	sltu	zero,t5,t1
    3afa:	0001                	nop
    3afc:	005ec0b3          	xor	ra,t4,t0
    3b00:	0063eab3          	or	s5,t2,t1
    3b04:	03ce                	slli	t2,t2,0x13
    3b06:	8efd                	and	a3,a3,a5
    3b08:	51f7a817          	auipc	a6,0x51f7a
    3b0c:	2455e693          	ori	a3,a1,581
    3b10:	03232eb3          	mulhsu	t4,t1,s2
    3b14:	3982a913          	slti	s2,t0,920
    3b18:	9d1e                	add	s10,s10,t2
    3b1a:	f3bd2413          	slti	s0,s10,-197
    3b1e:	00541393          	slli	t2,s0,0x5
    3b22:	08fd6013          	ori	zero,s10,143
    3b26:	41360eb3          	sub	t4,a2,s3
    3b2a:	8579                	srai	a0,a0,0x1e
    3b2c:	415a0333          	sub	t1,s4,s5
    3b30:	8c81                	sub	s1,s1,s0
    3b32:	03bf5ab3          	divu	s5,t5,s11
    3b36:	8b2e                	mv	s6,a1
    3b38:	40200d33          	neg	s10,sp
    3b3c:	00fa9f33          	sll	t5,s5,a5
    3b40:	0001                	nop
    3b42:	8e41                	or	a2,a2,s0
    3b44:	01a13eb3          	sltu	t4,sp,s10
    3b48:	8ec2                	mv	t4,a6
    3b4a:	40018333          	sub	t1,gp,zero
    3b4e:	0001                	nop
    3b50:	013164b3          	or	s1,sp,s3
    3b54:	0113d493          	srli	s1,t2,0x11
    3b58:	41b5d293          	srai	t0,a1,0x1b
    3b5c:	0001                	nop
    3b5e:	ca8f3293          	sltiu	t0,t5,-856
    3b62:	0e65                	addi	t3,t3,25
    3b64:	9afd                	andi	a3,a3,-1
    3b66:	83c9                	srli	a5,a5,0x12
    3b68:	8d59                	or	a0,a0,a4
    3b6a:	6695                	lui	a3,0x5
    3b6c:	02f3eeb3          	rem	t4,t2,a5
    3b70:	03c81533          	mulh	a0,a6,t3
    3b74:	0a1e                	slli	s4,s4,0x7
    3b76:	01e8df93          	srli	t6,a7,0x1e
    3b7a:	d0a10393          	addi	t2,sp,-758 # 2bec2d0a <_kernel_instr_end+0x2beb5e6e>
    3b7e:	1b6b7417          	auipc	s0,0x1b6b7
    3b82:	8e11                	sub	a2,a2,a2
    3b84:	00c93eb3          	sltu	t4,s2,a2
    3b88:	4012d693          	srai	a3,t0,0x1
    3b8c:	8e0d                	sub	a2,a2,a1
    3b8e:	00ab1533          	sll	a0,s6,a0
    3b92:	121cba93          	sltiu	s5,s9,289
    3b96:	03c86633          	rem	a2,a6,t3
    3b9a:	03c59333          	mulh	t1,a1,t3
    3b9e:	9a7d                	andi	a2,a2,-1
    3ba0:	6145                	addi	sp,sp,48
    3ba2:	f6d07c93          	andi	s9,zero,-147
    3ba6:	8ae5                	andi	a3,a3,25
    3ba8:	00c29bb3          	sll	s7,t0,a2
    3bac:	28323913          	sltiu	s2,tp,643
    3bb0:	0169dd13          	srli	s10,s3,0x16
    3bb4:	987d                	andi	s0,s0,-1
    3bb6:	0f7a                	slli	t5,t5,0x1e
    3bb8:	86d1                	srai	a3,a3,0x14
    3bba:	6161                	addi	sp,sp,80
    3bbc:	039bfc33          	remu	s8,s7,s9
    3bc0:	01fccbb3          	xor	s7,s9,t6
    3bc4:	26600613          	li	a2,614
    3bc8:	a491ef37          	lui	t5,0xa491e
    3bcc:	0001                	nop
    3bce:	3246e113          	ori	sp,a3,804
    3bd2:	03ed2833          	mulhsu	a6,s10,t5
    3bd6:	021ced33          	rem	s10,s9,ra
    3bda:	00587fb3          	and	t6,a6,t0
    3bde:	0187ea33          	or	s4,a5,s8
    3be2:	8dd9                	or	a1,a1,a4
    3be4:	0001                	nop
    3be6:	0e6e                	slli	t3,t3,0x1b
    3be8:	2af03413          	sltiu	s0,zero,687
    3bec:	004817b3          	sll	a5,a6,tp
    3bf0:	9e72                	add	t3,t3,t3
    3bf2:	64d5                	lui	s1,0x15
    3bf4:	87a5                	srai	a5,a5,0x9
    3bf6:	00135a93          	srli	s5,t1,0x1
    3bfa:	8291                	srli	a3,a3,0x4
    3bfc:	415556b3          	sra	a3,a0,s5
    3c00:	41e85093          	srai	ra,a6,0x1e
    3c04:	03a6e433          	rem	s0,a3,s10
    3c08:	4ae1                	li	s5,24
    3c0a:	557d                	li	a0,-1
    3c0c:	8d4d                	or	a0,a0,a1
    3c0e:	6161                	addi	sp,sp,80
    3c10:	031b83b3          	mul	t2,s7,a7
    3c14:	dcf7a817          	auipc	a6,0xdcf7a
    3c18:	8d9d                	sub	a1,a1,a5
    3c1a:	030b5f33          	divu	t5,s6,a6
    3c1e:	3ae50293          	addi	t0,a0,942 # 1ac3e22 <_kernel_instr_end+0x1ab6f86>
    3c22:	023622b3          	mulhsu	t0,a2,gp
    3c26:	026d4333          	div	t1,s10,t1
    3c2a:	0001                	nop
    3c2c:	403c5133          	sra	sp,s8,gp
    3c30:	f223fe93          	andi	t4,t2,-222
    3c34:	9afd                	andi	a3,a3,-1
    3c36:	0816                	slli	a6,a6,0x5
    3c38:	030c44b3          	div	s1,s8,a6
    3c3c:	40378ab3          	sub	s5,a5,gp
    3c40:	0337ec33          	rem	s8,a5,s3
    3c44:	517d                	li	sp,-1
    3c46:	03b692b3          	mulh	t0,a3,s11
    3c4a:	87b9                	srai	a5,a5,0xe
    3c4c:	03800ab3          	mul	s5,zero,s8
    3c50:	00a3cb33          	xor	s6,t2,a0
    3c54:	82e9                	srli	a3,a3,0x1a
    3c56:	8c4d                	or	s0,s0,a1
    3c58:	0001                	nop
    3c5a:	c816ea93          	ori	s5,a3,-895
    3c5e:	02a4a4b3          	mulhsu	s1,s1,a0
    3c62:	01df22b3          	slt	t0,t5,t4
    3c66:	0001                	nop
    3c68:	83f5                	srli	a5,a5,0x1d
    3c6a:	02eed2b3          	divu	t0,t4,a4
    3c6e:	03ec6433          	rem	s0,s8,t5
    3c72:	039de333          	rem	t1,s11,s9
    3c76:	03006833          	rem	a6,zero,a6
    3c7a:	01a5d133          	srl	sp,a1,s10
    3c7e:	9e2e                	add	t3,t3,a1
    3c80:	cd8d3093          	sltiu	ra,s10,-808
    3c84:	003fea33          	or	s4,t6,gp
    3c88:	005c9233          	sll	tp,s9,t0
    3c8c:	08de                	slli	a7,a7,0x17
    3c8e:	c40a0a93          	addi	s5,s4,-960 # 18c40 <_kernel_instr_end+0xbda4>
    3c92:	717d                	addi	sp,sp,-16
    3c94:	002498b3          	sll	a7,s1,sp
    3c98:	0629ea93          	ori	s5,s3,98
    3c9c:	8509                	srai	a0,a0,0x2
    3c9e:	02776133          	rem	sp,a4,t2
    3ca2:	00ade033          	or	zero,s11,a0
    3ca6:	8479                	srai	s0,s0,0x1e
    3ca8:	01dcb133          	sltu	sp,s9,t4
    3cac:	01225313          	srli	t1,tp,0x12
    3cb0:	00251033          	sll	zero,a0,sp
    3cb4:	03e6b2b3          	mulhu	t0,a3,t5
    3cb8:	8e9d                	sub	a3,a3,a5
    3cba:	8a92                	mv	s5,tp
    3cbc:	001d0933          	add	s2,s10,ra
    3cc0:	12bcff93          	andi	t6,s9,299
    3cc4:	02989fb3          	mulh	t6,a7,s1
    3cc8:	408b5bb3          	sra	s7,s6,s0
    3ccc:	00f9dd33          	srl	s10,s3,a5
    3cd0:	00f69b33          	sll	s6,a3,a5
    3cd4:	40ed5ab3          	sra	s5,s10,a4
    3cd8:	416b5c93          	srai	s9,s6,0x16
    3cdc:	01345e33          	srl	t3,s0,s3
    3ce0:	8251                	srli	a2,a2,0x14
    3ce2:	2f106c93          	ori	s9,zero,753
    3ce6:	0d5d                	addi	s10,s10,23
    3ce8:	8041                	srli	s0,s0,0x10
    3cea:	0083a133          	slt	sp,t2,s0
    3cee:	019f48b3          	xor	a7,t5,s9
    3cf2:	01ccd133          	srl	sp,s9,t3
    3cf6:	033043b3          	div	t2,zero,s3
    3cfa:	01438333          	add	t1,t2,s4
    3cfe:	8d8d                	sub	a1,a1,a1
    3d00:	9a62                	add	s4,s4,s8
    3d02:	c9392b17          	auipc	s6,0xc9392
    3d06:	88ed                	andi	s1,s1,27
    3d08:	00b05a93          	srli	s5,zero,0xb
    3d0c:	fda66513          	ori	a0,a2,-38
    3d10:	0036e033          	or	zero,a3,gp
    3d14:	03693533          	mulhu	a0,s2,s6
    3d18:	03566e33          	rem	t3,a2,s5
    3d1c:	0076e0b3          	or	ra,a3,t2
    3d20:	997d                	andi	a0,a0,-1
    3d22:	eacfc413          	xori	s0,t6,-340
    3d26:	8b85                	andi	a5,a5,1
    3d28:	f3a2be13          	sltiu	t3,t0,-198
    3d2c:	027e8933          	mul	s2,t4,t2
    3d30:	12e20113          	addi	sp,tp,302 # 1612e <_kernel_instr_end+0x9292>
    3d34:	8e52                	mv	t3,s4
    3d36:	8af6                	mv	s5,t4
    3d38:	854d                	srai	a0,a0,0x13
    3d3a:	4c81                	li	s9,0
    3d3c:	41848ab3          	sub	s5,s1,s8
    3d40:	01803e33          	snez	t3,s8
    3d44:	8626                	mv	a2,s1
    3d46:	8c85                	sub	s1,s1,s1
    3d48:	8d36                	mv	s10,a3
    3d4a:	004264b3          	or	s1,tp,tp
    3d4e:	400e5293          	srai	t0,t3,0x0
    3d52:	d16b6913          	ori	s2,s6,-746
    3d56:	024794b3          	mulh	s1,a5,tp
    3d5a:	02f4e7b3          	rem	a5,s1,a5
    3d5e:	41c00d33          	neg	s10,t3
    3d62:	29c12c93          	slti	s9,sp,668
    3d66:	40465633          	sra	a2,a2,tp
    3d6a:	8a0d                	andi	a2,a2,3
    3d6c:	409e0eb3          	sub	t4,t3,s1
    3d70:	3d82aab7          	lui	s5,0x3d82a
    3d74:	d2527593          	andi	a1,tp,-731
    3d78:	00ee5433          	srl	s0,t3,a4
    3d7c:	6151                	addi	sp,sp,272
    3d7e:	01d75333          	srl	t1,a4,t4
    3d82:	0cf9                	addi	s9,s9,30
    3d84:	01b31413          	slli	s0,t1,0x1b
    3d88:	0e6b8193          	addi	gp,s7,230 # 1b0e6 <_kernel_instr_end+0xe24a>
    3d8c:	016de793          	ori	a5,s11,22
    3d90:	017a4f33          	xor	t5,s4,s7
    3d94:	40fd8e33          	sub	t3,s11,a5
    3d98:	01aa5893          	srli	a7,s4,0x1a
    3d9c:	40960d33          	sub	s10,a2,s1
    3da0:	817a                	mv	sp,t5
    3da2:	8c45                	or	s0,s0,s1
    3da4:	40925533          	sra	a0,tp,s1
    3da8:	02a00ab3          	mul	s5,zero,a0
    3dac:	00cd6233          	or	tp,s10,a2
    3db0:	0001                	nop
    3db2:	6121                	addi	sp,sp,64
    3db4:	0168dc13          	srli	s8,a7,0x16
    3db8:	8239                	srli	a2,a2,0xe
    3dba:	8ee9                	and	a3,a3,a0
    3dbc:	02298933          	mul	s2,s3,sp
    3dc0:	fc3ac413          	xori	s0,s5,-61
    3dc4:	000b1a93          	slli	s5,s6,0x0
    3dc8:	27bf6813          	ori	a6,t5,635
    3dcc:	8207dbb7          	lui	s7,0x8207d
    3dd0:	030717b3          	mulh	a5,a4,a6
    3dd4:	02c3a6b3          	mulhsu	a3,t2,a2
    3dd8:	84f1                	srai	s1,s1,0x1c
    3dda:	4a79                	li	s4,30
    3ddc:	02f485b3          	mul	a1,s1,a5
    3de0:	032ff4b3          	remu	s1,t6,s2
    3de4:	850a                	mv	a0,sp
    3de6:	86b1                	srai	a3,a3,0xc
    3de8:	4945                	li	s2,17
    3dea:	0f0b0097          	auipc	ra,0xf0b0
    3dee:	8fc5                	or	a5,a5,s1
    3df0:	1bc7af13          	slti	t5,a5,444
    3df4:	02eaf8b3          	remu	a7,s5,a4
    3df8:	6171                	addi	sp,sp,336
    3dfa:	41530233          	sub	tp,t1,s5
    3dfe:	41fe5393          	srai	t2,t3,0x1f
    3e02:	8dc1                	or	a1,a1,s0
    3e04:	01507a33          	and	s4,zero,s5
    3e08:	8d39                	xor	a0,a0,a4
    3e0a:	8ed9                	or	a3,a3,a4
    3e0c:	02f6ae13          	slti	t3,a3,47
    3e10:	00929793          	slli	a5,t0,0x9
    3e14:	8fbe                	mv	t6,a5
    3e16:	fea2ae13          	slti	t3,t0,-22
    3e1a:	d8218813          	addi	a6,gp,-638 # 2468dd82 <_kernel_instr_end+0x24680ee6>
    3e1e:	401a56b3          	sra	a3,s4,ra
    3e22:	8956                	mv	s2,s5
    3e24:	204a3593          	sltiu	a1,s4,516
    3e28:	0101ff33          	and	t5,gp,a6
    3e2c:	0001                	nop
    3e2e:	03f9f5b3          	remu	a1,s3,t6
    3e32:	844d                	srai	s0,s0,0x13
    3e34:	8645                	srai	a2,a2,0x11
    3e36:	0001                	nop
    3e38:	02bb5433          	divu	s0,s6,a1
    3e3c:	00dc9033          	sll	zero,s9,a3
    3e40:	018f65b3          	or	a1,t5,s8
    3e44:	40190933          	sub	s2,s2,ra
    3e48:	00fc9693          	slli	a3,s9,0xf
    3e4c:	01986533          	or	a0,a6,s9
    3e50:	01504ab3          	xor	s5,zero,s5
    3e54:	0f9b2e97          	auipc	t4,0xf9b2
    3e58:	40d9d933          	sra	s2,s3,a3
    3e5c:	87b5                	srai	a5,a5,0xd
    3e5e:	fe07ef93          	ori	t6,a5,-32
    3e62:	b6e2e937          	lui	s2,0xb6e2e
    3e66:	0078ee33          	or	t3,a7,t2
    3e6a:	0175dab3          	srl	s5,a1,s7
    3e6e:	0009a333          	sltz	t1,s3
    3e72:	8e01                	sub	a2,a2,s0
    3e74:	4179                	li	sp,30
    3e76:	1ecc2c93          	slti	s9,s8,492
    3e7a:	9a7d                	andi	a2,a2,-1
    3e7c:	03434cb3          	div	s9,t1,s4
    3e80:	021ff1b3          	remu	gp,t6,ra
    3e84:	717d                	addi	sp,sp,-16
    3e86:	0142b5b3          	sltu	a1,t0,s4
    3e8a:	8561                	srai	a0,a0,0x18
    3e8c:	0f49                	addi	t5,t5,18
    3e8e:	01a21eb3          	sll	t4,tp,s10
    3e92:	0001                	nop
    3e94:	99fd                	andi	a1,a1,-1
    3e96:	2b296593          	ori	a1,s2,690
    3e9a:	01fd7ab3          	and	s5,s10,t6
    3e9e:	27b36113          	ori	sp,t1,635
    3ea2:	1d012613          	slti	a2,sp,464
    3ea6:	01a63333          	sltu	t1,a2,s10
    3eaa:	717d                	addi	sp,sp,-16
    3eac:	8c35                	xor	s0,s0,a3
    3eae:	8fd9                	or	a5,a5,a4
    3eb0:	0001                	nop
    3eb2:	022e7a33          	remu	s4,t3,sp
    3eb6:	0124f4b3          	and	s1,s1,s2
    3eba:	8efd                	and	a3,a3,a5
    3ebc:	8df5                	and	a1,a1,a3
    3ebe:	8dc1                	or	a1,a1,s0
    3ec0:	83b9                	srli	a5,a5,0xe
    3ec2:	6d15                	lui	s10,0x5
    3ec4:	00882533          	slt	a0,a6,s0
    3ec8:	1d7d                	addi	s10,s10,-1
    3eca:	d6817313          	andi	t1,sp,-664
    3ece:	33b38093          	addi	ra,t2,827
    3ed2:	8199                	srli	a1,a1,0x6
    3ed4:	005bd093          	srli	ra,s7,0x5
    3ed8:	02c1cb33          	div	s6,gp,a2
    3edc:	0307f533          	remu	a0,a5,a6
    3ee0:	d924a313          	slti	t1,s1,-622
    3ee4:	9fca                	add	t6,t6,s2
    3ee6:	88d1                	andi	s1,s1,20
    3ee8:	02d9cf33          	div	t5,s3,a3
    3eec:	8065                	srli	s0,s0,0x19
    3eee:	16fd                	addi	a3,a3,-1
    3ef0:	615d                	addi	sp,sp,432
    3ef2:	6371                	lui	t1,0x1c
    3ef4:	0033f833          	and	a6,t2,gp
    3ef8:	19cfee93          	ori	t4,t6,412
    3efc:	00073833          	sltu	a6,a4,zero
    3f00:	8985                	andi	a1,a1,1
    3f02:	0001                	nop
    3f04:	007246b3          	xor	a3,tp,t2
    3f08:	00c23f33          	sltu	t5,tp,a2
    3f0c:	034bdb33          	divu	s6,s7,s4
    3f10:	9846                	add	a6,a6,a7
    3f12:	0eb2                	slli	t4,t4,0xc
    3f14:	717d                	addi	sp,sp,-16
    3f16:	8cfd                	and	s1,s1,a5
    3f18:	02082933          	mulhsu	s2,a6,zero
    3f1c:	0001                	nop
    3f1e:	fa50b637          	lui	a2,0xfa50b
    3f22:	0001                	nop
    3f24:	0267f8b3          	remu	a7,a5,t1
    3f28:	8eb5                	xor	a3,a3,a3
    3f2a:	013b98b3          	sll	a7,s7,s3
    3f2e:	d5b0b293          	sltiu	t0,ra,-677
    3f32:	037e57b3          	divu	a5,t3,s7
    3f36:	0b52                	slli	s6,s6,0x14
    3f38:	01e03d33          	snez	s10,t5
    3f3c:	997d                	andi	a0,a0,-1
    3f3e:	01ce83b3          	add	t2,t4,t3
    3f42:	1d53f093          	andi	ra,t2,469
    3f46:	8c75                	and	s0,s0,a3
    3f48:	028f5cb3          	divu	s9,t5,s0
    3f4c:	0388b433          	mulhu	s0,a7,s8
    3f50:	0001                	nop
    3f52:	4391d197          	auipc	gp,0x4391d
    3f56:	01f67c33          	and	s8,a2,t6
    3f5a:	80dd                	srli	s1,s1,0x17
    3f5c:	407f8c33          	sub	s8,t6,t2
    3f60:	0080b2b3          	sltu	t0,ra,s0
    3f64:	16812313          	slti	t1,sp,360
    3f68:	8529                	srai	a0,a0,0xa
    3f6a:	40170833          	sub	a6,a4,ra
    3f6e:	01027633          	and	a2,tp,a6
    3f72:	03735933          	divu	s2,t1,s7
    3f76:	f8828b93          	addi	s7,t0,-120 # 7b5f2a30 <_kernel_instr_end+0x7b5e5b94>
    3f7a:	032ca8b3          	mulhsu	a7,s9,s2
    3f7e:	021c3133          	mulhu	sp,s8,ra
    3f82:	8e89                	sub	a3,a3,a0
    3f84:	01889a13          	slli	s4,a7,0x18
    3f88:	013c3633          	sltu	a2,s8,s3
    3f8c:	659d                	lui	a1,0x7
    3f8e:	db708e13          	addi	t3,ra,-585 # f0b3ba1 <_kernel_instr_end+0xf0a6d05>
    3f92:	9cd2                	add	s9,s9,s4
    3f94:	8c49                	or	s0,s0,a0
    3f96:	03e06eb3          	rem	t4,zero,t5
    3f9a:	e2c66f93          	ori	t6,a2,-468
    3f9e:	e230a293          	slti	t0,ra,-477
    3fa2:	00f583b3          	add	t2,a1,a5
    3fa6:	03b5c4b3          	div	s1,a1,s11
    3faa:	01f9a233          	slt	tp,s3,t6
    3fae:	1a7d                	addi	s4,s4,-1
    3fb0:	01d1                	addi	gp,gp,20
    3fb2:	02a59c33          	mulh	s8,a1,a0
    3fb6:	0001                	nop
    3fb8:	00bee4b3          	or	s1,t4,a1
    3fbc:	82ed                	srli	a3,a3,0x1b
    3fbe:	00f1b133          	sltu	sp,gp,a5
    3fc2:	029955b3          	divu	a1,s2,s1
    3fc6:	00842ab3          	slt	s5,s0,s0
    3fca:	00429f13          	slli	t5,t0,0x4
    3fce:	188efa93          	andi	s5,t4,392
    3fd2:	02314933          	div	s2,sp,gp
    3fd6:	03c24ab3          	div	s5,tp,t3
    3fda:	81bd                	srli	a1,a1,0xf
    3fdc:	40e3da13          	srai	s4,t2,0xe
    3fe0:	258ded13          	ori	s10,s11,600
    3fe4:	3d5c2f17          	auipc	t5,0x3d5c2
    3fe8:	83b9                	srli	a5,a5,0xe
    3fea:	00707233          	and	tp,zero,t2
    3fee:	01ba1493          	slli	s1,s4,0x1b
    3ff2:	03ab10b3          	mulh	ra,s6,s10
    3ff6:	8d71                	and	a0,a0,a2
    3ff8:	029908b3          	mul	a7,s2,s1
    3ffc:	c5000f93          	li	t6,-944
    4000:	84e1                	srai	s1,s1,0x18
    4002:	00981b33          	sll	s6,a6,s1
    4006:	01835e13          	srli	t3,t1,0x18
    400a:	02ddcd33          	div	s10,s11,a3
    400e:	8cc5                	or	s1,s1,s1
    4010:	005daab3          	slt	s5,s11,t0
    4014:	dc603593          	sltiu	a1,zero,-570
    4018:	6449                	lui	s0,0x12
    401a:	025745b3          	div	a1,a4,t0
    401e:	f85d2213          	slti	tp,s10,-123
    4022:	030462b3          	rem	t0,s0,a6
    4026:	103c8b13          	addi	s6,s9,259 # 3fcdd103 <_kernel_instr_end+0x3fcd0267>
    402a:	024ca5b3          	mulhsu	a1,s9,tp
    402e:	414b86b3          	sub	a3,s7,s4
    4032:	02e71f33          	mulh	t5,a4,a4
    4036:	8e71                	and	a2,a2,a2
    4038:	003c5c93          	srli	s9,s8,0x3
    403c:	842a                	mv	s0,a0
    403e:	003cf533          	and	a0,s9,gp
    4042:	8471                	srai	s0,s0,0x1c
    4044:	009a7133          	and	sp,s4,s1
    4048:	8ec9                	or	a3,a3,a0
    404a:	00d7a633          	slt	a2,a5,a3
    404e:	9a7d                	andi	a2,a2,-1
    4050:	8d5d                	or	a0,a0,a5
    4052:	02475f33          	divu	t5,a4,tp
    4056:	8c6e                	mv	s8,s11
    4058:	9a7d                	andi	a2,a2,-1
    405a:	67b1                	lui	a5,0xc
    405c:	41a90e33          	sub	t3,s2,s10
    4060:	00515833          	srl	a6,sp,t0
    4064:	0231beb3          	mulhu	t4,gp,gp
    4068:	60884637          	lui	a2,0x60884
    406c:	0c12                	slli	s8,s8,0x4
    406e:	717d                	addi	sp,sp,-16
    4070:	00f81eb3          	sll	t4,a6,a5
    4074:	02282333          	mulhsu	t1,a6,sp
    4078:	4855                	li	a6,21
    407a:	031fb1b3          	mulhu	gp,t6,a7
    407e:	6129                	addi	sp,sp,192
    4080:	02754133          	div	sp,a0,t2
    4084:	02311533          	mulh	a0,sp,gp
    4088:	019e                	slli	gp,gp,0x7
    408a:	032adb33          	divu	s6,s5,s2
    408e:	8dd9                	or	a1,a1,a4
    4090:	41125193          	srai	gp,tp,0x11
    4094:	01e1                	addi	gp,gp,24
    4096:	0001                	nop
    4098:	40be5f13          	srai	t5,t3,0xb
    409c:	01bc9893          	slli	a7,s9,0x1b
    40a0:	013d                	addi	sp,sp,15
    40a2:	8e0d                	sub	a2,a2,a1
    40a4:	032ae2b3          	rem	t0,s5,s2
    40a8:	0001                	nop
    40aa:	00ced633          	srl	a2,t4,a2
    40ae:	00a55313          	srli	t1,a0,0xa
    40b2:	8c61                	and	s0,s0,s0
    40b4:	8625                	srai	a2,a2,0x9
    40b6:	03e350b3          	divu	ra,t1,t5
    40ba:	86b9                	srai	a3,a3,0xe
    40bc:	41e2d413          	srai	s0,t0,0x1e
    40c0:	8d51                	or	a0,a0,a2
    40c2:	40f75513          	srai	a0,a4,0xf
    40c6:	235b7493          	andi	s1,s6,565
    40ca:	dfaae093          	ori	ra,s5,-518
    40ce:	0bf6                	slli	s7,s7,0x1d
    40d0:	01567e33          	and	t3,a2,s5
    40d4:	003100b3          	add	ra,sp,gp
    40d8:	03e028b3          	mulhsu	a7,zero,t5
    40dc:	8bed                	andi	a5,a5,27
    40de:	03db4fb3          	div	t6,s6,t4
    40e2:	021b0d33          	mul	s10,s6,ra
    40e6:	40825833          	sra	a6,tp,s0
    40ea:	0217cf33          	div	t5,a5,ra
    40ee:	8fa1                	xor	a5,a5,s0
    40f0:	c0eb7a13          	andi	s4,s6,-1010
    40f4:	0001                	nop
    40f6:	c979a613          	slti	a2,s3,-873
    40fa:	41e05433          	sra	s0,zero,t5
    40fe:	007711b3          	sll	gp,a4,t2
    4102:	0001                	nop
    4104:	02f21e33          	mulh	t3,tp,a5
    4108:	34022097          	auipc	ra,0x34022
    410c:	019d67b3          	or	a5,s10,s9
    4110:	0001                	nop
    4112:	0169c333          	xor	t1,s3,s6
    4116:	8d6e                	mv	s10,s11
    4118:	003c7033          	and	zero,s8,gp
    411c:	8526                	mv	a0,s1
    411e:	8625                	srai	a2,a2,0x9
    4120:	01a3b2b3          	sltu	t0,t2,s10
    4124:	8589                	srai	a1,a1,0x2
    4126:	3e6ac113          	xori	sp,s5,998
    412a:	011aed33          	or	s10,s5,a7
    412e:	0261c3b3          	div	t2,gp,t1
    4132:	03ec1d33          	mulh	s10,s8,t5
    4136:	0bf66f13          	ori	t5,a2,191
    413a:	00801813          	slli	a6,zero,0x8
    413e:	4155d933          	sra	s2,a1,s5
    4142:	03168a33          	mul	s4,a3,a7
    4146:	03610433          	mul	s0,sp,s6
    414a:	8c61                	and	s0,s0,s0
    414c:	024295b3          	mulh	a1,t0,tp
    4150:	ffb0eb13          	ori	s6,ra,-5
    4154:	0001                	nop
    4156:	e94d2d13          	slti	s10,s10,-364
    415a:	86046e17          	auipc	t3,0x86046
    415e:	029a6033          	rem	zero,s4,s1
    4162:	419d88b3          	sub	a7,s11,s9
    4166:	e96dac13          	slti	s8,s11,-362
    416a:	8ec5                	or	a3,a3,s1
    416c:	0001                	nop
    416e:	030d                	addi	t1,t1,3
    4170:	8d51                	or	a0,a0,a2
    4172:	8cf5                	and	s1,s1,a3
    4174:	1c990093          	addi	ra,s2,457 # b6e2e1c9 <_kernel_instr_end+0xb6e2132d>
    4178:	41265b33          	sra	s6,a2,s2
    417c:	03f476b3          	remu	a3,s0,t6
    4180:	d24d4013          	xori	zero,s10,-732
    4184:	2709e413          	ori	s0,s3,624
    4188:	8f89                	sub	a5,a5,a0
    418a:	0301c7b3          	div	a5,gp,a6
    418e:	3882ea93          	ori	s5,t0,904
    4192:	d5dea013          	slti	zero,t4,-675
    4196:	035a4a33          	div	s4,s4,s5
    419a:	8e9d                	sub	a3,a3,a5
    419c:	0372                	slli	t1,t1,0x1c
    419e:	4116d4b3          	sra	s1,a3,a7
    41a2:	41b15433          	sra	s0,sp,s11
    41a6:	9afd                	andi	a3,a3,-1
    41a8:	f8e2c213          	xori	tp,t0,-114
    41ac:	01ec1b13          	slli	s6,s8,0x1e
    41b0:	01c8a933          	slt	s2,a7,t3
    41b4:	015af2b3          	and	t0,s5,s5
    41b8:	0370a0b3          	mulhsu	ra,ra,s7
    41bc:	0179d8b3          	srl	a7,s3,s7
    41c0:	02202fb3          	mulhsu	t6,zero,sp
    41c4:	03d7fa33          	remu	s4,a5,t4
    41c8:	ef912413          	slti	s0,sp,-263
    41cc:	00628cb3          	add	s9,t0,t1
    41d0:	21c67093          	andi	ra,a2,540
    41d4:	9c92                	add	s9,s9,tp
    41d6:	021685b3          	mul	a1,a3,ra
    41da:	e72d6893          	ori	a7,s10,-398
    41de:	01d160b3          	or	ra,sp,t4
    41e2:	00b8e633          	or	a2,a7,a1
    41e6:	00156d33          	or	s10,a0,ra
    41ea:	007c44b3          	xor	s1,s8,t2
    41ee:	002c5433          	srl	s0,s8,sp
    41f2:	f6b57813          	andi	a6,a0,-149
    41f6:	41b780b3          	sub	ra,a5,s11
    41fa:	41645913          	srai	s2,s0,0x16
    41fe:	8909                	andi	a0,a0,2
    4200:	03a8f7b3          	remu	a5,a7,s10
    4204:	0886                	slli	a7,a7,0x1
    4206:	9afd                	andi	a3,a3,-1
    4208:	717d                	addi	sp,sp,-16
    420a:	0001                	nop
    420c:	004fd113          	srli	sp,t6,0x4
    4210:	40720233          	sub	tp,tp,t2
    4214:	717d                	addi	sp,sp,-16
    4216:	1ef3bc13          	sltiu	s8,t2,495
    421a:	6165                	addi	sp,sp,112
    421c:	40e40fb3          	sub	t6,s0,a4
    4220:	0062fb33          	and	s6,t0,t1
    4224:	41360fb3          	sub	t6,a2,s3
    4228:	00165c13          	srli	s8,a2,0x1
    422c:	47d5                	li	a5,21
    422e:	41a15f13          	srai	t5,sp,0x1a
    4232:	01a43cb3          	sltu	s9,s0,s10
    4236:	093e                	slli	s2,s2,0xf
    4238:	072ac313          	xori	t1,s5,114
    423c:	6ca1                	lui	s9,0x8
    423e:	0168efb3          	or	t6,a7,s6
    4242:	024e30b3          	mulhu	ra,t3,tp
    4246:	6875                	lui	a6,0x1d
    4248:	0338d033          	divu	zero,a7,s3
    424c:	81ed                	srli	a1,a1,0x1b
    424e:	9fb6                	add	t6,t6,a3
    4250:	039dfd33          	remu	s10,s11,s9
    4254:	a53e5f37          	lui	t5,0xa53e5
    4258:	8a79                	andi	a2,a2,30
    425a:	5f7d                	li	t5,-1
    425c:	015f1513          	slli	a0,t5,0x15
    4260:	03a322b3          	mulhsu	t0,t1,s10
    4264:	03dbbc33          	mulhu	s8,s7,t4
    4268:	00ef1633          	sll	a2,t5,a4
    426c:	017e0133          	add	sp,t3,s7
    4270:	62a5                	lui	t0,0x9
    4272:	03ff7cb3          	remu	s9,t5,t6
    4276:	037f9833          	mulh	a6,t6,s7
    427a:	31503f13          	sltiu	t5,zero,789
    427e:	00ba9113          	slli	sp,s5,0xb
    4282:	03666433          	rem	s0,a2,s6
    4286:	8675                	srai	a2,a2,0x1d
    4288:	717d                	addi	sp,sp,-16
    428a:	0b96                	slli	s7,s7,0x5
    428c:	0001                	nop
    428e:	888d                	andi	s1,s1,3
    4290:	4e81                	li	t4,0
    4292:	02dbf933          	remu	s2,s7,a3
    4296:	0ad6                	slli	s5,s5,0x15
    4298:	ee297f93          	andi	t6,s2,-286
    429c:	1efd                	addi	t4,t4,-1
    429e:	06aa                	slli	a3,a3,0xa
    42a0:	41d188b3          	sub	a7,gp,t4
    42a4:	41565a13          	srai	s4,a2,0x15
    42a8:	0027b933          	sltu	s2,a5,sp
    42ac:	03d043b3          	div	t2,zero,t4
    42b0:	01b2d113          	srli	sp,t0,0x1b
    42b4:	00e1                	addi	ra,ra,24
    42b6:	9eda                	add	t4,t4,s6
    42b8:	99fd                	andi	a1,a1,-1
    42ba:	00d6a933          	slt	s2,a3,a3
    42be:	803d                	srli	s0,s0,0xf
    42c0:	41f153b3          	sra	t2,sp,t6
    42c4:	6915                	lui	s2,0x5
    42c6:	01fd96b7          	lui	a3,0x1fd9
    42ca:	0354b7b3          	mulhu	a5,s1,s5
    42ce:	00ebd3b3          	srl	t2,s7,a4
    42d2:	67ad                	lui	a5,0xb
    42d4:	02f1a5b3          	mulhsu	a1,gp,a5
    42d8:	015abe33          	sltu	t3,s5,s5
    42dc:	037866b3          	rem	a3,a6,s7
    42e0:	8e05                	sub	a2,a2,s1
    42e2:	01a5c133          	xor	sp,a1,s10
    42e6:	0435                	addi	s0,s0,13
    42e8:	d6b41a17          	auipc	s4,0xd6b41
    42ec:	41ea5593          	srai	a1,s4,0x1e
    42f0:	8a56                	mv	s4,s5
    42f2:	0b85                	addi	s7,s7,1
    42f4:	00b69d33          	sll	s10,a3,a1
    42f8:	8ee1                	and	a3,a3,s0
    42fa:	0354de33          	divu	t3,s1,s5
    42fe:	0207e033          	rem	zero,a5,zero
    4302:	85d9                	srai	a1,a1,0x16
    4304:	010560b3          	or	ra,a0,a6
    4308:	6159                	addi	sp,sp,400
    430a:	83e9                	srli	a5,a5,0x1a
    430c:	0001                	nop
    430e:	8b81                	andi	a5,a5,0
    4310:	8511                	srai	a0,a0,0x4
    4312:	10fd                	addi	ra,ra,-1
    4314:	8d99                	sub	a1,a1,a4
    4316:	01d2a133          	slt	sp,t0,t4
    431a:	8565                	srai	a0,a0,0x19
    431c:	8cc5                	or	s1,s1,s1
    431e:	01266a33          	or	s4,a2,s2
    4322:	009c9033          	sll	zero,s9,s1
    4326:	013d3533          	sltu	a0,s10,s3
    432a:	00a19093          	slli	ra,gp,0xa
    432e:	03a065b3          	rem	a1,zero,s10
    4332:	02984bb3          	div	s7,a6,s1
    4336:	03099233          	mulh	tp,s3,a6
    433a:	6a55                	lui	s4,0x15
    433c:	220d0693          	addi	a3,s10,544 # 5220 <_main+0x314a>
    4340:	03c89c33          	mulh	s8,a7,t3
    4344:	717d                	addi	sp,sp,-16
    4346:	029b3313          	sltiu	t1,s6,41
    434a:	88b2                	mv	a7,a2
    434c:	99fd                	andi	a1,a1,-1
    434e:	01981f13          	slli	t5,a6,0x19
    4352:	0105d393          	srli	t2,a1,0x10
    4356:	03a6ca33          	div	s4,a3,s10
    435a:	0324b5b3          	mulhu	a1,s1,s2
    435e:	0d5c0f13          	addi	t5,s8,213 # 40d5 <_main+0x1fff>
    4362:	01238233          	add	tp,t2,s2
    4366:	004e81b3          	add	gp,t4,tp
    436a:	81b5                	srli	a1,a1,0xd
    436c:	86c5                	srai	a3,a3,0x11
    436e:	99fd                	andi	a1,a1,-1
    4370:	88a1                	andi	s1,s1,8
    4372:	038dfd33          	remu	s10,s11,s8
    4376:	02c09133          	mulh	sp,ra,a2
    437a:	41a78333          	sub	t1,a5,s10
    437e:	02990e33          	mul	t3,s2,s1
    4382:	1a990913          	addi	s2,s2,425 # 51a9 <_main+0x30d3>
    4386:	01b1e833          	or	a6,gp,s11
    438a:	8d45                	or	a0,a0,s1
    438c:	e10a0093          	addi	ra,s4,-496 # 14e10 <_kernel_instr_end+0x7f74>
    4390:	00901c33          	sll	s8,zero,s1
    4394:	8fb9                	xor	a5,a5,a4
    4396:	86a6                	mv	a3,s1
    4398:	018352b3          	srl	t0,t1,s8
    439c:	0001f5b3          	and	a1,gp,zero
    43a0:	0395f7b3          	remu	a5,a1,s9
    43a4:	8ef5                	and	a3,a3,a3
    43a6:	037360b3          	rem	ra,t1,s7
    43aa:	3242ef13          	ori	t5,t0,804
    43ae:	01ea07b3          	add	a5,s4,t5
    43b2:	01a27cb3          	and	s9,tp,s10
    43b6:	850d                	srai	a0,a0,0x3
    43b8:	0001                	nop
    43ba:	00484cb3          	xor	s9,a6,tp
    43be:	01e7a493          	slti	s1,a5,30
    43c2:	02d32a33          	mulhsu	s4,t1,a3
    43c6:	02103333          	mulhu	t1,zero,ra
    43ca:	039442b3          	div	t0,s0,s9
    43ce:	012dfeb3          	and	t4,s11,s2
    43d2:	9406                	add	s0,s0,ra
    43d4:	02c37333          	remu	t1,t1,a2
    43d8:	00abd493          	srli	s1,s7,0xa
    43dc:	028ee333          	rem	t1,t4,s0
    43e0:	053e                	slli	a0,a0,0xf
    43e2:	01bfd5b3          	srl	a1,t6,s11
    43e6:	03362033          	mulhsu	zero,a2,s3
    43ea:	8ec5                	or	a3,a3,s1
    43ec:	01ecacb3          	slt	s9,s9,t5
    43f0:	8d5d                	or	a0,a0,a5
    43f2:	02a3f633          	remu	a2,t2,a0
    43f6:	00bbebb3          	or	s7,s7,a1
    43fa:	014c3f33          	sltu	t5,s8,s4
    43fe:	717d                	addi	sp,sp,-16
    4400:	00405a93          	srli	s5,zero,0x4
    4404:	e2dfcf93          	xori	t6,t6,-467
    4408:	01e202b3          	add	t0,tp,t5
    440c:	026e2f33          	mulhsu	t5,t3,t1
    4410:	011192b3          	sll	t0,gp,a7
    4414:	01ae0cb3          	add	s9,t3,s10
    4418:	615d                	addi	sp,sp,432
    441a:	01c8f133          	and	sp,a7,t3
    441e:	6141                	addi	sp,sp,16
    4420:	24382a93          	slti	s5,a6,579
    4424:	fc994c93          	xori	s9,s2,-55
    4428:	0392e5b3          	rem	a1,t0,s9
    442c:	006d9c33          	sll	s8,s11,t1
    4430:	85b2                	mv	a1,a2
    4432:	00c184b3          	add	s1,gp,a2
    4436:	e5a53313          	sltiu	t1,a0,-422
    443a:	01c1f833          	and	a6,gp,t3
    443e:	1115b413          	sltiu	s0,a1,273
    4442:	03cddab3          	divu	s5,s11,t3
    4446:	03e5f633          	remu	a2,a1,t5
    444a:	38066037          	lui	zero,0x38066
    444e:	90b2                	add	ra,ra,a2
    4450:	8961                	andi	a0,a0,24
    4452:	0f15                	addi	t5,t5,5
    4454:	cf8d7f93          	andi	t6,s10,-776
    4458:	617d                	addi	sp,sp,496
    445a:	45c9                	li	a1,18
    445c:	0001                	nop
    445e:	62f1                	lui	t0,0x1c
    4460:	01f1ea33          	or	s4,gp,t6
    4464:	8ffd                	and	a5,a5,a5
    4466:	406e8bb3          	sub	s7,t4,t1
    446a:	03cd2933          	mulhsu	s2,s10,t3
    446e:	d44d8593          	addi	a1,s11,-700
    4472:	91aa                	add	gp,gp,a0
    4474:	70ab2537          	lui	a0,0x70ab2
    4478:	00961813          	slli	a6,a2,0x9
    447c:	8db1                	xor	a1,a1,a2
    447e:	00525193          	srli	gp,tp,0x5
    4482:	01dcb333          	sltu	t1,s9,t4
    4486:	006ee6b3          	or	a3,t4,t1
    448a:	0386                	slli	t2,t2,0x1
    448c:	0125b2b3          	sltu	t0,a1,s2
    4490:	8079                	srli	s0,s0,0x1e
    4492:	0103b3b3          	sltu	t2,t2,a6
    4496:	21163813          	sltiu	a6,a2,529
    449a:	6355                	lui	t1,0x15
    449c:	4429                	li	s0,10
    449e:	00ec7133          	and	sp,s8,a4
    44a2:	4196d633          	sra	a2,a3,s9
    44a6:	417a8bb3          	sub	s7,s5,s7
    44aa:	5f7d                	li	t5,-1
    44ac:	d3c9bd37          	lui	s10,0xd3c9b
    44b0:	0380bbb3          	mulhu	s7,ra,s8
    44b4:	4101dc13          	srai	s8,gp,0x10
    44b8:	00487f33          	and	t5,a6,tp
    44bc:	031f8033          	mul	zero,t6,a7
    44c0:	f38b3597          	auipc	a1,0xf38b3
    44c4:	03836833          	rem	a6,t1,s8
    44c8:	3d6fe313          	ori	t1,t6,982
    44cc:	80e5                	srli	s1,s1,0x19
    44ce:	00919633          	sll	a2,gp,s1
    44d2:	0069e333          	or	t1,s3,t1
    44d6:	00b171b3          	and	gp,sp,a1
    44da:	8cb9                	xor	s1,s1,a4
    44dc:	8d0d                	sub	a0,a0,a1
    44de:	1a7d                	addi	s4,s4,-1
    44e0:	02e4a0b3          	mulhsu	ra,s1,a4
    44e4:	014d1b33          	sll	s6,s10,s4
    44e8:	021f2e33          	mulhsu	t3,t5,ra
    44ec:	0399a3b3          	mulhsu	t2,s3,s9
    44f0:	0041a833          	slt	a6,gp,tp
    44f4:	01c85b93          	srli	s7,a6,0x1c
    44f8:	40eb88b3          	sub	a7,s7,a4
    44fc:	3cebf013          	andi	zero,s7,974
    4500:	03636633          	rem	a2,t1,s6
    4504:	01215913          	srli	s2,sp,0x12
    4508:	1e757813          	andi	a6,a0,487
    450c:	8df5                	and	a1,a1,a3
    450e:	83dd                	srli	a5,a5,0x17
    4510:	6ce9                	lui	s9,0x1a
    4512:	02c42a33          	mulhsu	s4,s0,a2
    4516:	6e3d                	lui	t3,0xf
    4518:	e5efc313          	xori	t1,t6,-418
    451c:	6149                	addi	sp,sp,144
    451e:	8da9                	xor	a1,a1,a0
    4520:	02a4e1b7          	lui	gp,0x2a4e
    4524:	403fe017          	auipc	zero,0x403fe
    4528:	3d668893          	addi	a7,a3,982 # 1fd93d6 <_kernel_instr_end+0x1fcc53a>
    452c:	01dac133          	xor	sp,s5,t4
    4530:	0260d233          	divu	tp,ra,t1
    4534:	87b1                	srai	a5,a5,0xc
    4536:	1c7d                	addi	s8,s8,-1
    4538:	01c707b3          	add	a5,a4,t3
    453c:	01cdabb3          	slt	s7,s11,t3
    4540:	03926a33          	rem	s4,tp,s9
    4544:	0004b1b3          	sltu	gp,s1,zero
    4548:	29494213          	xori	tp,s2,660
    454c:	615d                	addi	sp,sp,432
    454e:	968e                	add	a3,a3,gp
    4550:	48e5                	li	a7,25
    4552:	026e7a33          	remu	s4,t3,t1
    4556:	02e02cb3          	mulhsu	s9,zero,a4
    455a:	0001                	nop
    455c:	5a7d                	li	s4,-1
    455e:	0001                	nop
    4560:	011cf233          	and	tp,s9,a7
    4564:	01755a13          	srli	s4,a0,0x17
    4568:	41e555b3          	sra	a1,a0,t5
    456c:	f4b18397          	auipc	t2,0xf4b18
    4570:	01b5dc13          	srli	s8,a1,0x1b
    4574:	03ad6533          	rem	a0,s10,s10
    4578:	8c09                	sub	s0,s0,a0
    457a:	157d                	addi	a0,a0,-1
    457c:	010a2133          	slt	sp,s4,a6
    4580:	00496ab3          	or	s5,s2,tp
    4584:	40ea5233          	sra	tp,s4,a4
    4588:	02388b33          	mul	s6,a7,gp
    458c:	c7fa8c93          	addi	s9,s5,-897 # 3d829c7f <_kernel_instr_end+0x3d81cde3>
    4590:	8e11                	sub	a2,a2,a2
    4592:	41e7d393          	srai	t2,a5,0x1e
    4596:	0311f0b3          	remu	ra,gp,a7
    459a:	01725c93          	srli	s9,tp,0x17
    459e:	c7e90b93          	addi	s7,s2,-898
    45a2:	03e13d33          	mulhu	s10,sp,t5
    45a6:	eca74a13          	xori	s4,a4,-310
    45aa:	997d                	andi	a0,a0,-1
    45ac:	415a5c13          	srai	s8,s4,0x15
    45b0:	0352c2b3          	div	t0,t0,s5
    45b4:	0001                	nop
    45b6:	8dd9                	or	a1,a1,a4
    45b8:	8cfd                	and	s1,s1,a5
    45ba:	8c09                	sub	s0,s0,a0
    45bc:	8461                	srai	s0,s0,0x18
    45be:	02e55c33          	divu	s8,a0,a4
    45c2:	8fd5                	or	a5,a5,a3
    45c4:	8ec1                	or	a3,a3,s0
    45c6:	0001                	nop
    45c8:	8881                	andi	s1,s1,0
    45ca:	0355d133          	divu	sp,a1,s5
    45ce:	0325                	addi	t1,t1,9
    45d0:	019eb833          	sltu	a6,t4,s9
    45d4:	9392                	add	t2,t2,tp
    45d6:	0001                	nop
    45d8:	02c03fb3          	mulhu	t6,zero,a2
    45dc:	037b2833          	mulhsu	a6,s6,s7
    45e0:	eded0c13          	addi	s8,s10,-290 # d3c9aede <_kernel_instr_end+0xd3c8e042>
    45e4:	016603b3          	add	t2,a2,s6
    45e8:	01aa1693          	slli	a3,s4,0x1a
    45ec:	032c6eb3          	rem	t4,s8,s2
    45f0:	8ce5                	and	s1,s1,s1
    45f2:	012763b3          	or	t2,a4,s2
    45f6:	02e3b433          	mulhu	s0,t2,a4
    45fa:	01b55033          	srl	zero,a0,s11
    45fe:	03bd33b3          	mulhu	t2,s10,s11
    4602:	717d                	addi	sp,sp,-16
    4604:	cff43693          	sltiu	a3,s0,-769
    4608:	9e46                	add	t3,t3,a7
    460a:	9aae                	add	s5,s5,a1
    460c:	01d8f913          	andi	s2,a7,29
    4610:	41045d13          	srai	s10,s0,0x10
    4614:	69dfe337          	lui	t1,0x69dfe
    4618:	8e45                	or	a2,a2,s1
    461a:	01a1b833          	sltu	a6,gp,s10
    461e:	2c4eec13          	ori	s8,t4,708
    4622:	0b3e                	slli	s6,s6,0xf
    4624:	025b57b3          	divu	a5,s6,t0
    4628:	02da85b3          	mul	a1,s5,a3
    462c:	019eafb3          	slt	t6,t4,s9
    4630:	02999533          	mulh	a0,s3,s1
    4634:	e512bc13          	sltiu	s8,t0,-431
    4638:	0001                	nop
    463a:	04168193          	addi	gp,a3,65
    463e:	007d6eb3          	or	t4,s10,t2
    4642:	038001b3          	mul	gp,zero,s8
    4646:	8aed                	andi	a3,a3,27
    4648:	fcc9ce37          	lui	t3,0xfcc9c
    464c:	010a23b3          	slt	t2,s4,a6
    4650:	00cd9813          	slli	a6,s11,0xc
    4654:	00ffdc13          	srli	s8,t6,0xf
    4658:	e8867513          	andi	a0,a2,-376
    465c:	8add                	andi	a3,a3,23
    465e:	016df933          	and	s2,s11,s6
    4662:	00899833          	sll	a6,s3,s0
    4666:	40bbd633          	sra	a2,s7,a1
    466a:	8f99                	sub	a5,a5,a4
    466c:	4f0d                	li	t5,3
    466e:	c0b94f13          	xori	t5,s2,-1013
    4672:	8691                	srai	a3,a3,0x4
    4674:	82fd                	srli	a3,a3,0x1f
    4676:	2bbce613          	ori	a2,s9,699
    467a:	994a                	add	s2,s2,s2
    467c:	00b67233          	and	tp,a2,a1
    4680:	035b4a33          	div	s4,s6,s5
    4684:	8a1d                	andi	a2,a2,7
    4686:	9f16                	add	t5,t5,t0
    4688:	08337693          	andi	a3,t1,131
    468c:	d4a4b493          	sltiu	s1,s1,-694
    4690:	004f9f13          	slli	t5,t6,0x4
    4694:	0001                	nop
    4696:	1cfd                	addi	s9,s9,-1
    4698:	015e9193          	slli	gp,t4,0x15
    469c:	033e                	slli	t1,t1,0xf
    469e:	035a                	slli	t1,t1,0x16
    46a0:	4099df33          	sra	t5,s3,s1
    46a4:	41e4df33          	sra	t5,s1,t5
    46a8:	0001                	nop
    46aa:	011a5933          	srl	s2,s4,a7
    46ae:	02ad62b3          	rem	t0,s10,a0
    46b2:	01879c13          	slli	s8,a5,0x18
    46b6:	00a31793          	slli	a5,t1,0xa
    46ba:	6ead                	lui	t4,0xb
    46bc:	03cd2fb3          	mulhsu	t6,s10,t3
    46c0:	01235c33          	srl	s8,t1,s2
    46c4:	038cc833          	div	a6,s9,s8
    46c8:	038d30b3          	mulhu	ra,s10,s8
    46cc:	4bb1                	li	s7,12
    46ce:	40a55a33          	sra	s4,a0,a0
    46d2:	41f15633          	sra	a2,sp,t6
    46d6:	414e0fb3          	sub	t6,t3,s4
    46da:	852d                	srai	a0,a0,0xb
    46dc:	6fb5                	lui	t6,0xd
    46de:	038d2333          	mulhsu	t1,s10,s8
    46e2:	ccbf51b7          	lui	gp,0xccbf5
    46e6:	019682b3          	add	t0,a3,s9
    46ea:	0001                	nop
    46ec:	98ae                	add	a7,a7,a1
    46ee:	007e90b3          	sll	ra,t4,t2
    46f2:	01dced33          	or	s10,s9,t4
    46f6:	02479cb3          	mulh	s9,a5,tp
    46fa:	00e2                	slli	ra,ra,0x18
    46fc:	4355                	li	t1,21
    46fe:	8ead                	xor	a3,a3,a1
    4700:	41c954b3          	sra	s1,s2,t3
    4704:	0178c933          	xor	s2,a7,s7
    4708:	027323b3          	mulhsu	t2,t1,t2
    470c:	f4d7e893          	ori	a7,a5,-179
    4710:	0e9a                	slli	t4,t4,0x6
    4712:	4186db93          	srai	s7,a3,0x18
    4716:	02e72a33          	mulhsu	s4,a4,a4
    471a:	008c13b3          	sll	t2,s8,s0
    471e:	8d7d                	and	a0,a0,a5
    4720:	009e4533          	xor	a0,t3,s1
    4724:	0001                	nop
    4726:	0334f633          	remu	a2,s1,s3
    472a:	004680b3          	add	ra,a3,tp
    472e:	00103fb3          	snez	t6,ra
    4732:	00bf5113          	srli	sp,t5,0xb
    4736:	005611b3          	sll	gp,a2,t0
    473a:	0112bf33          	sltu	t5,t0,a7
    473e:	03208a33          	mul	s4,ra,s2
    4742:	0308bb33          	mulhu	s6,a7,a6
    4746:	0211c2b3          	div	t0,gp,ra
    474a:	013ad1b3          	srl	gp,s5,s3
    474e:	eebd2413          	slti	s0,s10,-277
    4752:	8fa9                	xor	a5,a5,a0
    4754:	0129a3b3          	slt	t2,s3,s2
    4758:	e70eee93          	ori	t4,t4,-400
    475c:	4145deb3          	sra	t4,a1,s4
    4760:	0015d133          	srl	sp,a1,ra
    4764:	8ea1                	xor	a3,a3,s0
    4766:	8d39                	xor	a0,a0,a4
    4768:	8fd5                	or	a5,a5,a3
    476a:	e03ea013          	slti	zero,t4,-509
    476e:	027fab33          	mulhsu	s6,t6,t2
    4772:	03905a33          	divu	s4,zero,s9
    4776:	0367f2b3          	remu	t0,a5,s6
    477a:	caf4b513          	sltiu	a0,s1,-849
    477e:	03ba32b3          	mulhu	t0,s4,s11
    4782:	0343d0b3          	divu	ra,t2,s4
    4786:	8c45                	or	s0,s0,s1
    4788:	0001                	nop
    478a:	00695eb3          	srl	t4,s2,t1
    478e:	f6876f13          	ori	t5,a4,-152
    4792:	89a1                	andi	a1,a1,8
    4794:	8d15                	sub	a0,a0,a3
    4796:	d980b293          	sltiu	t0,ra,-616
    479a:	001a6e33          	or	t3,s4,ra
    479e:	0001                	nop
    47a0:	02b54833          	div	a6,a0,a1
    47a4:	41c55a13          	srai	s4,a0,0x1c
    47a8:	03d2da33          	divu	s4,t0,t4
    47ac:	d0692093          	slti	ra,s2,-762
    47b0:	8d25                	xor	a0,a0,s1
    47b2:	279ef113          	andi	sp,t4,633
    47b6:	41c08533          	sub	a0,ra,t3
    47ba:	8d39                	xor	a0,a0,a4
    47bc:	0163f233          	and	tp,t2,s6
    47c0:	717d                	addi	sp,sp,-16
    47c2:	c1b84593          	xori	a1,a6,-997
    47c6:	007442b3          	xor	t0,s0,t2
    47ca:	02e5dcb3          	divu	s9,a1,a4
    47ce:	2379ec13          	ori	s8,s3,567
    47d2:	02f10233          	mul	tp,sp,a5
    47d6:	8ccd                	or	s1,s1,a1
    47d8:	4043dc33          	sra	s8,t2,tp
    47dc:	0001                	nop
    47de:	0036d433          	srl	s0,a3,gp
    47e2:	00cc1913          	slli	s2,s8,0xc
    47e6:	4060d113          	srai	sp,ra,0x6
    47ea:	1f7d                	addi	t5,t5,-1
    47ec:	001b3533          	sltu	a0,s6,ra
    47f0:	0001                	nop
    47f2:	8195                	srli	a1,a1,0x5
    47f4:	8b0e                	mv	s6,gp
    47f6:	8a71                	andi	a2,a2,28
    47f8:	8c11                	sub	s0,s0,a2
    47fa:	08e2f493          	andi	s1,t0,142
    47fe:	8189                	srli	a1,a1,0x2
    4800:	89a9                	andi	a1,a1,10
    4802:	086e                	slli	a6,a6,0x1b
    4804:	01389213          	slli	tp,a7,0x13
    4808:	8ead                	xor	a3,a3,a1
    480a:	ed75fb93          	andi	s7,a1,-297
    480e:	4001de33          	sra	t3,gp,zero
    4812:	02cbeeb3          	rem	t4,s7,a2
    4816:	8f91                	sub	a5,a5,a2
    4818:	6121                	addi	sp,sp,64
    481a:	848d                	srai	s1,s1,0x3
    481c:	64b5                	lui	s1,0xd
    481e:	0001                	nop
    4820:	8191                	srli	a1,a1,0x4
    4822:	8c15                	sub	s0,s0,a3
    4824:	003e6333          	or	t1,t3,gp
    4828:	033d85b3          	mul	a1,s11,s3
    482c:	987a9697          	auipc	a3,0x987a9
    4830:	00c96133          	or	sp,s2,a2
    4834:	006b4ab3          	xor	s5,s6,t1
    4838:	8c95                	sub	s1,s1,a3
    483a:	99fd                	andi	a1,a1,-1
    483c:	8551                	srai	a0,a0,0x14
    483e:	402ade33          	sra	t3,s5,sp
    4842:	20b43f93          	sltiu	t6,s0,523
    4846:	004b0a33          	add	s4,s6,tp
    484a:	0039c433          	xor	s0,s3,gp
    484e:	0001                	nop
    4850:	717d                	addi	sp,sp,-16
    4852:	03cf4433          	div	s0,t5,t3
    4856:	418c50b3          	sra	ra,s8,s8
    485a:	40ab5393          	srai	t2,s6,0xa
    485e:	036178b3          	remu	a7,sp,s6
    4862:	b7439637          	lui	a2,0xb7439
    4866:	8579                	srai	a0,a0,0x1e
    4868:	d188cb97          	auipc	s7,0xd188c
    486c:	00cb4f33          	xor	t5,s6,a2
    4870:	035fbfb3          	mulhu	t6,t6,s5
    4874:	6825                	lui	a6,0x9
    4876:	3c290613          	addi	a2,s2,962
    487a:	410e06b3          	sub	a3,t3,a6
    487e:	00367233          	and	tp,a2,gp
    4882:	0001                	nop
    4884:	8171                	srli	a0,a0,0x1c
    4886:	00ca4233          	xor	tp,s4,a2
    488a:	9f4e                	add	t5,t5,s3
    488c:	94d80697          	auipc	a3,0x94d80
    4890:	01a39bb3          	sll	s7,t2,s10
    4894:	ed0d0597          	auipc	a1,0xed0d0
    4898:	41a80f33          	sub	t5,a6,s10
    489c:	717d                	addi	sp,sp,-16
    489e:	ce564393          	xori	t2,a2,-795
    48a2:	8205                	srli	a2,a2,0x1
    48a4:	8db9                	xor	a1,a1,a4
    48a6:	5cfd                	li	s9,-1
    48a8:	02992833          	mulhsu	a6,s2,s1
    48ac:	6d69                	lui	s10,0x1a
    48ae:	26f4a293          	slti	t0,s1,623
    48b2:	8c71                	and	s0,s0,a2
    48b4:	2143c913          	xori	s2,t2,532
    48b8:	0150d133          	srl	sp,ra,s5
    48bc:	410e5a13          	srai	s4,t3,0x10
    48c0:	55fd                	li	a1,-1
    48c2:	406b8d33          	sub	s10,s7,t1
    48c6:	02080933          	mul	s2,a6,zero
    48ca:	06dcb813          	sltiu	a6,s9,109
    48ce:	00a5e633          	or	a2,a1,a0
    48d2:	0a5ee313          	ori	t1,t4,165
    48d6:	02388f33          	mul	t5,a7,gp
    48da:	464bc2b7          	lui	t0,0x464bc
    48de:	6237c097          	auipc	ra,0x6237c
    48e2:	0334a433          	mulhsu	s0,s1,s3
    48e6:	987d                	andi	s0,s0,-1
    48e8:	0081d613          	srli	a2,gp,0x8
    48ec:	830a                	mv	t1,sp
    48ee:	0206e1b3          	rem	gp,a3,zero
    48f2:	08ee                	slli	a7,a7,0x1b
    48f4:	02f7a7b3          	mulhsu	a5,a5,a5
    48f8:	00180a33          	add	s4,a6,ra
    48fc:	03d6e233          	rem	tp,a3,t4
    4900:	014346b3          	xor	a3,t1,s4
    4904:	029ffd33          	remu	s10,t6,s1
    4908:	418c5f13          	srai	t5,s8,0x18
    490c:	60356237          	lui	tp,0x60356
    4910:	016623b3          	slt	t2,a2,s6
    4914:	132bf013          	andi	zero,s7,306
    4918:	8d51                	or	a0,a0,a2
    491a:	8ea5                	xor	a3,a3,s1
    491c:	fee18f13          	addi	t5,gp,-18 # ccbf4fee <_kernel_instr_end+0xccbe8152>
    4920:	4cd25597          	auipc	a1,0x4cd25
    4924:	03934e33          	div	t3,t1,s9
    4928:	41628bb3          	sub	s7,t0,s6
    492c:	9e12                	add	t3,t3,tp
    492e:	07ae                	slli	a5,a5,0xb
    4930:	8591                	srai	a1,a1,0x4
    4932:	01db1393          	slli	t2,s6,0x1d
    4936:	6155                	addi	sp,sp,304
    4938:	d9dfb813          	sltiu	a6,t6,-611
    493c:	402f5e33          	sra	t3,t5,sp
    4940:	6111                	addi	sp,sp,256
    4942:	02715ab3          	divu	s5,sp,t2
    4946:	8d1d                	sub	a0,a0,a5
    4948:	02ae8b33          	mul	s6,t4,a0
    494c:	10b92b13          	slti	s6,s2,267
    4950:	01569a93          	slli	s5,a3,0x15
    4954:	02320d33          	mul	s10,tp,gp
    4958:	024e1a33          	mulh	s4,t3,tp
    495c:	8ec1                	or	a3,a3,s0
    495e:	4d25                	li	s10,9
    4960:	8e01                	sub	a2,a2,s0
    4962:	987d                	andi	s0,s0,-1
    4964:	866d                	srai	a2,a2,0x1b
    4966:	01e60a33          	add	s4,a2,t5
    496a:	032bdcb3          	divu	s9,s7,s2
    496e:	0932                	slli	s2,s2,0xc
    4970:	039171b3          	remu	gp,sp,s9
    4974:	dfc5ca93          	xori	s5,a1,-516
    4978:	81e9                	srli	a1,a1,0x1a
    497a:	a026b897          	auipc	a7,0xa026b
    497e:	333e6793          	ori	a5,t3,819
    4982:	8e1d                	sub	a2,a2,a5
    4984:	019691b3          	sll	gp,a3,s9
    4988:	016b9f33          	sll	t5,s7,s6
    498c:	40f1d013          	srai	zero,gp,0xf
    4990:	008dffb3          	and	t6,s11,s0
    4994:	017b01b3          	add	gp,s6,s7
    4998:	408985b3          	sub	a1,s3,s0
    499c:	21f7a517          	auipc	a0,0x21f7a
    49a0:	36eccfb7          	lui	t6,0x36ecc
    49a4:	01debc33          	sltu	s8,t4,t4
    49a8:	1fd48b13          	addi	s6,s1,509 # d1fd <_kernel_instr_end+0x361>
    49ac:	80b1                	srli	s1,s1,0xc
    49ae:	00e99513          	slli	a0,s3,0xe
    49b2:	02329233          	mulh	tp,t0,gp
    49b6:	32077493          	andi	s1,a4,800
    49ba:	208b3013          	sltiu	zero,s6,520
    49be:	5dd98537          	lui	a0,0x5dd98
    49c2:	22f48013          	addi	zero,s1,559
    49c6:	878a                	mv	a5,sp
    49c8:	6141                	addi	sp,sp,16
    49ca:	036316b3          	mulh	a3,t1,s6
    49ce:	00af17b3          	sll	a5,t5,a0
    49d2:	023bf433          	remu	s0,s7,gp
    49d6:	8da5                	xor	a1,a1,s1
    49d8:	8c39                	xor	s0,s0,a4
    49da:	8ead                	xor	a3,a3,a1
    49dc:	60e9                	lui	ra,0x1a
    49de:	611d                	addi	sp,sp,416
    49e0:	0001                	nop
    49e2:	00819133          	sll	sp,gp,s0
    49e6:	d1c4ee13          	ori	t3,s1,-740
    49ea:	00ea10b3          	sll	ra,s4,a4
    49ee:	ee893093          	sltiu	ra,s2,-280
    49f2:	036f6933          	rem	s2,t5,s6
    49f6:	018f52b3          	srl	t0,t5,s8
    49fa:	5cfd                	li	s9,-1
    49fc:	6121                	addi	sp,sp,64
    49fe:	01729bb3          	sll	s7,t0,s7
    4a02:	c8d23293          	sltiu	t0,tp,-883
    4a06:	8da5                	xor	a1,a1,s1
    4a08:	40205233          	sra	tp,zero,sp
    4a0c:	02e36a33          	rem	s4,t1,a4
    4a10:	01117b33          	and	s6,sp,a7
    4a14:	717d                	addi	sp,sp,-16
    4a16:	041e                	slli	s0,s0,0x7
    4a18:	02abe233          	rem	tp,s7,a0
    4a1c:	8fd9                	or	a5,a5,a4
    4a1e:	cdfd0117          	auipc	sp,0xcdfd0
    4a22:	027a2c33          	mulhsu	s8,s4,t2
    4a26:	0124ba33          	sltu	s4,s1,s2
    4a2a:	021c96b3          	mulh	a3,s9,ra
    4a2e:	9fb6                	add	t6,t6,a3
    4a30:	01c25833          	srl	a6,tp,t3
    4a34:	5e7d                	li	t3,-1
    4a36:	03fe6d33          	rem	s10,t3,t6
    4a3a:	099f1217          	auipc	tp,0x99f1
    4a3e:	015d6f33          	or	t5,s10,s5
    4a42:	4c5e9937          	lui	s2,0x4c5e9
    4a46:	8262                	mv	tp,s8
    4a48:	e3f90913          	addi	s2,s2,-449 # 4c5e8e3f <_kernel_instr_end+0x4c5dbfa3>
    4a4c:	00e8cfb3          	xor	t6,a7,a4
    4a50:	0001                	nop
    4a52:	001bc2b3          	xor	t0,s7,ra
    4a56:	0001                	nop
    4a58:	8cc5                	or	s1,s1,s1
    4a5a:	00530933          	add	s2,t1,t0
    4a5e:	01c9                	addi	gp,gp,18
    4a60:	01bd9a93          	slli	s5,s11,0x1b
    4a64:	d3e8ed13          	ori	s10,a7,-706
    4a68:	0001                	nop
    4a6a:	01d09833          	sll	a6,ra,t4
    4a6e:	0110c5b3          	xor	a1,ra,a7
    4a72:	0001                	nop
    4a74:	82c6                	mv	t0,a7
    4a76:	01987cb3          	and	s9,a6,s9
    4a7a:	00459c13          	slli	s8,a1,0x4
    4a7e:	d7713f93          	sltiu	t6,sp,-649
    4a82:	032e78b3          	remu	a7,t3,s2
    4a86:	87ca                	mv	a5,s2
    4a88:	41445093          	srai	ra,s0,0x14
    4a8c:	8c81                	sub	s1,s1,s0
    4a8e:	fbb7c393          	xori	t2,a5,-69
    4a92:	0fe1                	addi	t6,t6,24
    4a94:	8cf1                	and	s1,s1,a2
    4a96:	80ad                	srli	s1,s1,0xb
    4a98:	00a297b3          	sll	a5,t0,a0
    4a9c:	8dc5                	or	a1,a1,s1
    4a9e:	03d93e13          	sltiu	t3,s2,61
    4aa2:	8df5                	and	a1,a1,a3
    4aa4:	0001                	nop
    4aa6:	8af1                	andi	a3,a3,28
    4aa8:	0014f333          	and	t1,s1,ra
    4aac:	821d                	srli	a2,a2,0x7
    4aae:	8609                	srai	a2,a2,0x2
    4ab0:	01013e33          	sltu	t3,sp,a6
    4ab4:	8ca2                	mv	s9,s0
    4ab6:	8572                	mv	a0,t3
    4ab8:	8529                	srai	a0,a0,0xa
    4aba:	cb193113          	sltiu	sp,s2,-847
    4abe:	8e69                	and	a2,a2,a0
    4ac0:	0064e0b3          	or	ra,s1,t1
    4ac4:	02f0d133          	divu	sp,ra,a5
    4ac8:	851d                	srai	a0,a0,0x7
    4aca:	0325afb3          	mulhsu	t6,a1,s2
    4ace:	40165cb3          	sra	s9,a2,ra
    4ad2:	8e95                	sub	a3,a3,a3
    4ad4:	8911                	andi	a0,a0,4
    4ad6:	03a986b3          	mul	a3,s3,s10
    4ada:	0822                	slli	a6,a6,0x8
    4adc:	1efd                	addi	t4,t4,-1
    4ade:	22c73513          	sltiu	a0,a4,556
    4ae2:	030dbcb3          	mulhu	s9,s11,a6
    4ae6:	0001                	nop
    4ae8:	67e9                	lui	a5,0x1a
    4aea:	755d7237          	lui	tp,0x755d7
    4aee:	014f2a33          	slt	s4,t5,s4
    4af2:	fa21a813          	slti	a6,gp,-94
    4af6:	022cceb3          	div	t4,s9,sp
    4afa:	00db53b3          	srl	t2,s6,a3
    4afe:	00f5a833          	slt	a6,a1,a5
    4b02:	1e5d03b7          	lui	t2,0x1e5d0
    4b06:	d9dadc17          	auipc	s8,0xd9dad
    4b0a:	333b2793          	slti	a5,s6,819
    4b0e:	39ace793          	ori	a5,s9,922
    4b12:	01c860b3          	or	ra,a6,t3
    4b16:	01a8beb3          	sltu	t4,a7,s10
    4b1a:	0068bab3          	sltu	s5,a7,t1
    4b1e:	0001                	nop
    4b20:	014e6633          	or	a2,t3,s4
    4b24:	0294d2b3          	divu	t0,s1,s1
    4b28:	855d                	srai	a0,a0,0x17
    4b2a:	021d2cb3          	mulhsu	s9,s10,ra
    4b2e:	85b5                	srai	a1,a1,0xd
    4b30:	416808b3          	sub	a7,a6,s6
    4b34:	8c71                	and	s0,s0,a2
    4b36:	03a452b3          	divu	t0,s0,s10
    4b3a:	40add8b3          	sra	a7,s11,a0
    4b3e:	02160433          	mul	s0,a2,ra
    4b42:	0223d133          	divu	sp,t2,sp
    4b46:	08146813          	ori	a6,s0,129
    4b4a:	41ad5393          	srai	t2,s10,0x1a
    4b4e:	02284b33          	div	s6,a6,sp
    4b52:	8c69                	and	s0,s0,a0
    4b54:	4809                	li	a6,2
    4b56:	0001                	nop
    4b58:	8ca1                	xor	s1,s1,s0
    4b5a:	020605b3          	mul	a1,a2,zero
    4b5e:	0152dab3          	srl	s5,t0,s5
    4b62:	5a7d                	li	s4,-1
    4b64:	01aa1c13          	slli	s8,s4,0x1a
    4b68:	019cc233          	xor	tp,s9,s9
    4b6c:	02674933          	div	s2,a4,t1
    4b70:	00b45693          	srli	a3,s0,0xb
    4b74:	8ef5                	and	a3,a3,a3
    4b76:	f1f66317          	auipc	t1,0xf1f66
    4b7a:	8c59                	or	s0,s0,a4
    4b7c:	95032297          	auipc	t0,0x95032
    4b80:	8f85                	sub	a5,a5,s1
    4b82:	01507233          	and	tp,zero,s5
    4b86:	2d8a4593          	xori	a1,s4,728
    4b8a:	02dba0b3          	mulhsu	ra,s7,a3
    4b8e:	01893833          	sltu	a6,s2,s8
    4b92:	8cd9                	or	s1,s1,a4
    4b94:	02c6c313          	xori	t1,a3,44
    4b98:	00875033          	srl	zero,a4,s0
    4b9c:	055b8d13          	addi	s10,s7,85 # d18908bd <_kernel_instr_end+0xd1883a21>
    4ba0:	0786                	slli	a5,a5,0x1
    4ba2:	8ec5                	or	a3,a3,s1
    4ba4:	02430a13          	addi	s4,t1,36 # f1f6ab9a <_kernel_instr_end+0xf1f5dcfe>
    4ba8:	8d29                	xor	a0,a0,a0
    4baa:	8d41                	or	a0,a0,s0
    4bac:	03271d33          	mulh	s10,a4,s2
    4bb0:	6969                	lui	s2,0x1a
    4bb2:	40118cb3          	sub	s9,gp,ra
    4bb6:	8cd1                	or	s1,s1,a2
    4bb8:	013cf7b3          	and	a5,s9,s3
    4bbc:	717d                	addi	sp,sp,-16
    4bbe:	0001                	nop
    4bc0:	8d41                	or	a0,a0,s0
    4bc2:	0352c0b3          	div	ra,t0,s5
    4bc6:	717d                	addi	sp,sp,-16
    4bc8:	02205e33          	divu	t3,zero,sp
    4bcc:	40035133          	sra	sp,t1,zero
    4bd0:	009216b3          	sll	a3,tp,s1
    4bd4:	4665                	li	a2,25
    4bd6:	02c13ab3          	mulhu	s5,sp,a2
    4bda:	9412                	add	s0,s0,tp
    4bdc:	01d05093          	srli	ra,zero,0x1d
    4be0:	df977a97          	auipc	s5,0xdf977
    4be4:	6a15                	lui	s4,0x5
    4be6:	de3b3c13          	sltiu	s8,s6,-541
    4bea:	015a8533          	add	a0,s5,s5
    4bee:	017b95b3          	sll	a1,s7,s7
    4bf2:	de79a493          	slti	s1,s3,-537
    4bf6:	03fe8eb3          	mul	t4,t4,t6
    4bfa:	e4f58513          	addi	a0,a1,-433 # 4cd2976f <_kernel_instr_end+0x4cd1c8d3>
    4bfe:	2d6d4813          	xori	a6,s10,726
    4c02:	8bd1                	andi	a5,a5,20
    4c04:	c18e7813          	andi	a6,t3,-1000
    4c08:	cb758b93          	addi	s7,a1,-841
    4c0c:	03355eb3          	divu	t4,a0,s3
    4c10:	02757ab3          	remu	s5,a0,t2
    4c14:	717d                	addi	sp,sp,-16
    4c16:	c08cf293          	andi	t0,s9,-1016
    4c1a:	005a2233          	slt	tp,s4,t0
    4c1e:	6eb9                	lui	t4,0xe
    4c20:	597d                	li	s2,-1
    4c22:	00c9                	addi	ra,ra,18
    4c24:	8da1                	xor	a1,a1,s0
    4c26:	0d1a                	slli	s10,s10,0x6
    4c28:	41bad093          	srai	ra,s5,0x1b
    4c2c:	019d8eb3          	add	t4,s11,s9
    4c30:	006cd133          	srl	sp,s9,t1
    4c34:	1b9e3613          	sltiu	a2,t3,441
    4c38:	031d16b3          	mulh	a3,s10,a7
    4c3c:	407dd893          	srai	a7,s11,0x7
    4c40:	41255e13          	srai	t3,a0,0x12
    4c44:	012e3433          	sltu	s0,t3,s2
    4c48:	8c91                	sub	s1,s1,a2
    4c4a:	41ff5e13          	srai	t3,t5,0x1f
    4c4e:	03aed233          	divu	tp,t4,s10
    4c52:	1a88e113          	ori	sp,a7,424
    4c56:	03c27a33          	remu	s4,tp,t3
    4c5a:	03d21933          	mulh	s2,tp,t4
    4c5e:	03c7f933          	remu	s2,a5,t3
    4c62:	717d                	addi	sp,sp,-16
    4c64:	35670793          	addi	a5,a4,854
    4c68:	02f001b3          	mul	gp,zero,a5
    4c6c:	022135b3          	mulhu	a1,sp,sp
    4c70:	012c5433          	srl	s0,s8,s2
    4c74:	08da                	slli	a7,a7,0x16
    4c76:	dc7ece93          	xori	t4,t4,-569
    4c7a:	8cd1                	or	s1,s1,a2
    4c7c:	416584b3          	sub	s1,a1,s6
    4c80:	0336ceb3          	div	t4,a3,s3
    4c84:	84fd                	srai	s1,s1,0x1f
    4c86:	8f85                	sub	a5,a5,s1
    4c88:	ca1fc613          	xori	a2,t6,-863
    4c8c:	02ebdbb3          	divu	s7,s7,a4
    4c90:	8e61                	and	a2,a2,s0
    4c92:	f0650897          	auipc	a7,0xf0650
    4c96:	01db9c93          	slli	s9,s7,0x1d
    4c9a:	65e5                	lui	a1,0x19
    4c9c:	8c29                	xor	s0,s0,a0
    4c9e:	c2a1ba97          	auipc	s5,0xc2a1b
    4ca2:	8eb1                	xor	a3,a3,a2
    4ca4:	02625833          	divu	a6,tp,t1
    4ca8:	032bf933          	remu	s2,s7,s2
    4cac:	8d05                	sub	a0,a0,s1
    4cae:	8dad                	xor	a1,a1,a1
    4cb0:	40358133          	sub	sp,a1,gp
    4cb4:	00c1f8b3          	and	a7,gp,a2
    4cb8:	03bf25b3          	mulhsu	a1,t5,s11
    4cbc:	30edf593          	andi	a1,s11,782
    4cc0:	012e4133          	xor	sp,t3,s2
    4cc4:	fc092013          	slti	zero,s2,-64
    4cc8:	15e9e013          	ori	zero,s3,350
    4ccc:	94ce                	add	s1,s1,s3
    4cce:	db07b413          	sltiu	s0,a5,-592
    4cd2:	8c55                	or	s0,s0,a3
    4cd4:	2f8dca13          	xori	s4,s11,760
    4cd8:	717d                	addi	sp,sp,-16
    4cda:	98fa                	add	a7,a7,t5
    4cdc:	f1c0ee93          	ori	t4,ra,-228
    4ce0:	8c8d                	sub	s1,s1,a1
    4ce2:	0191a933          	slt	s2,gp,s9
    4ce6:	02e68533          	mul	a0,a3,a4
    4cea:	03b622b3          	mulhsu	t0,a2,s11
    4cee:	8de9                	and	a1,a1,a0
    4cf0:	012d9533          	sll	a0,s11,s2
    4cf4:	089a                	slli	a7,a7,0x6
    4cf6:	00584cb3          	xor	s9,a6,t0
    4cfa:	069a6393          	ori	t2,s4,105
    4cfe:	5211deb7          	lui	t4,0x5211d
    4d02:	22dff613          	andi	a2,t6,557
    4d06:	0001                	nop
    4d08:	64d9                	lui	s1,0x16
    4d0a:	96ce                	add	a3,a3,s3
    4d0c:	de16f093          	andi	ra,a3,-543
    4d10:	01d5a8b3          	slt	a7,a1,t4
    4d14:	12fd                	addi	t0,t0,-1
    4d16:	00dd                	addi	ra,ra,23
    4d18:	03748933          	mul	s2,s1,s7
    4d1c:	6edd                	lui	t4,0x17
    4d1e:	00534c33          	xor	s8,t1,t0
    4d22:	008610b3          	sll	ra,a2,s0
    4d26:	02b6fa33          	remu	s4,a3,a1
    4d2a:	0001                	nop
    4d2c:	8dc9                	or	a1,a1,a0
    4d2e:	89a9                	andi	a1,a1,10
    4d30:	029513b3          	mulh	t2,a0,s1
    4d34:	00600333          	add	t1,zero,t1
    4d38:	e399e493          	ori	s1,s3,-455
    4d3c:	01b15e13          	srli	t3,sp,0x1b
    4d40:	4036d1b3          	sra	gp,a3,gp
    4d44:	011804b3          	add	s1,a6,a7
    4d48:	003d2233          	slt	tp,s10,gp
    4d4c:	031d0ab3          	mul	s5,s10,a7
    4d50:	00b20333          	add	t1,tp,a1
    4d54:	9a06                	add	s4,s4,ra
    4d56:	017eb433          	sltu	s0,t4,s7
    4d5a:	00c39093          	slli	ra,t2,0xc
    4d5e:	4199d413          	srai	s0,s3,0x19
    4d62:	0379                	addi	t1,t1,30
    4d64:	2c9a8393          	addi	t2,s5,713 # c2a1ff67 <_kernel_instr_end+0xc2a130cb>
    4d68:	96206497          	auipc	s1,0x96206
    4d6c:	8155                	srli	a0,a0,0x15
    4d6e:	07d54393          	xori	t2,a0,125
    4d72:	0001                	nop
    4d74:	00538bb3          	add	s7,t2,t0
    4d78:	9a7d                	andi	a2,a2,-1
    4d7a:	00599e33          	sll	t3,s3,t0
    4d7e:	eb928493          	addi	s1,t0,-327 # 95036a35 <_kernel_instr_end+0x95029b99>
    4d82:	83a1                	srli	a5,a5,0x8
    4d84:	0167f933          	and	s2,a5,s6
    4d88:	02c4cab3          	div	s5,s1,a2
    4d8c:	01ac6633          	or	a2,s8,s10
    4d90:	9d0e                	add	s10,s10,gp
    4d92:	015f9e93          	slli	t4,t6,0x15
    4d96:	007faab3          	slt	s5,t6,t2
    4d9a:	25ebfd17          	auipc	s10,0x25ebf
    4d9e:	00425813          	srli	a6,tp,0x4
    4da2:	c6b5d337          	lui	t1,0xc6b5d
    4da6:	0187dfb3          	srl	t6,a5,s8
    4daa:	01089d13          	slli	s10,a7,0x10
    4dae:	8352                	mv	t1,s4
    4db0:	2bff7897          	auipc	a7,0x2bff7
    4db4:	02e0d4b3          	divu	s1,ra,a4
    4db8:	fb5f4093          	xori	ra,t5,-75
    4dbc:	41d986b3          	sub	a3,s3,t4
    4dc0:	40265293          	srai	t0,a2,0x2
    4dc4:	04b5                	addi	s1,s1,13
    4dc6:	03f9dd33          	divu	s10,s3,t6
    4dca:	02904033          	div	zero,zero,s1
    4dce:	8ca5                	xor	s1,s1,s1
    4dd0:	00a913b3          	sll	t2,s2,a0
    4dd4:	6169                	addi	sp,sp,208
    4dd6:	0124d333          	srl	t1,s1,s2
    4dda:	8c89                	sub	s1,s1,a0
    4ddc:	e21abc93          	sltiu	s9,s5,-479
    4de0:	01dc3a33          	sltu	s4,s8,t4
    4de4:	03f2c133          	div	sp,t0,t6
    4de8:	00f8fa33          	and	s4,a7,a5
    4dec:	9f5e                	add	t5,t5,s7
    4dee:	99fd                	andi	a1,a1,-1
    4df0:	01ce6033          	or	zero,t3,t3
    4df4:	ea2aa013          	slti	zero,s5,-350
    4df8:	8fe6                	mv	t6,s9
    4dfa:	01278ab3          	add	s5,a5,s2
    4dfe:	012bdf33          	srl	t5,s7,s2
    4e02:	00825013          	srli	zero,tp,0x8
    4e06:	01d2eab3          	or	s5,t0,t4
    4e0a:	02c161b3          	rem	gp,sp,a2
    4e0e:	e896a693          	slti	a3,a3,-375
    4e12:	4112de13          	srai	t3,t0,0x11
    4e16:	8c05                	sub	s0,s0,s1
    4e18:	019584b3          	add	s1,a1,s9
    4e1c:	4095d133          	sra	sp,a1,s1
    4e20:	0001                	nop
    4e22:	fcab4c13          	xori	s8,s6,-54
    4e26:	efd33293          	sltiu	t0,t1,-259
    4e2a:	8dbd                	xor	a1,a1,a5
    4e2c:	0c61                	addi	s8,s8,24
    4e2e:	e53bbe97          	auipc	t4,0xe53bb
    4e32:	0001                	nop
    4e34:	0001                	nop
    4e36:	0327a0b3          	mulhsu	ra,a5,s2
    4e3a:	fde0b093          	sltiu	ra,ra,-34
    4e3e:	035451b3          	divu	gp,s0,s5
    4e42:	f1b4cf93          	xori	t6,s1,-229
    4e46:	0048b6b3          	sltu	a3,a7,tp
    4e4a:	01d80093          	addi	ra,a6,29 # 901d <_main+0x6f47>
    4e4e:	8d49                	or	a0,a0,a0
    4e50:	8fe5                	and	a5,a5,s1
    4e52:	008d2fb3          	slt	t6,s10,s0
    4e56:	47a5                	li	a5,9
    4e58:	45629597          	auipc	a1,0x45629
    4e5c:	8ec9                	or	a3,a3,a0
    4e5e:	03b14e33          	div	t3,sp,s11
    4e62:	0016c5b3          	xor	a1,a3,ra
    4e66:	01a66033          	or	zero,a2,s10
    4e6a:	085e1617          	auipc	a2,0x85e1
    4e6e:	4841e117          	auipc	sp,0x4841e
    4e72:	002c2033          	slt	zero,s8,sp
    4e76:	4675                	li	a2,29
    4e78:	00034633          	xor	a2,t1,zero
    4e7c:	0100a633          	slt	a2,ra,a6
    4e80:	0283d8b3          	divu	a7,t2,s0
    4e84:	3afe8113          	addi	sp,t4,943 # e53c01dd <_kernel_instr_end+0xe53b3341>
    4e88:	6a55                	lui	s4,0x15
    4e8a:	03efeeb3          	rem	t4,t6,t5
    4e8e:	8c11                	sub	s0,s0,a2
    4e90:	822a                	mv	tp,a0
    4e92:	8079                	srli	s0,s0,0x1e
    4e94:	8ed6                	mv	t4,s5
    4e96:	dc873f13          	sltiu	t5,a4,-568
    4e9a:	016d85b3          	add	a1,s11,s6
    4e9e:	00c91f33          	sll	t5,s2,a2
    4ea2:	009600b3          	add	ra,a2,s1
    4ea6:	01d51493          	slli	s1,a0,0x1d
    4eaa:	00a80033          	add	zero,a6,a0
    4eae:	40b4d3b7          	lui	t2,0x40b4d
    4eb2:	02518bb3          	mul	s7,gp,t0
    4eb6:	8549                	srai	a0,a0,0x12
    4eb8:	8ec1                	or	a3,a3,s0
    4eba:	01fa6b33          	or	s6,s4,t6
    4ebe:	2006a593          	slti	a1,a3,512
    4ec2:	99fd                	andi	a1,a1,-1
    4ec4:	00f70113          	addi	sp,a4,15
    4ec8:	56388a97          	auipc	s5,0x56388
    4ecc:	12c5b413          	sltiu	s0,a1,300
    4ed0:	38cc7313          	andi	t1,s8,908
    4ed4:	00ea8633          	add	a2,s5,a4
    4ed8:	0342dc33          	divu	s8,t0,s4
    4edc:	03950c33          	mul	s8,a0,s9
    4ee0:	026026b3          	mulhsu	a3,zero,t1
    4ee4:	413cda13          	srai	s4,s9,0x13
    4ee8:	9c32                	add	s8,s8,a2
    4eea:	8c91                	sub	s1,s1,a2
    4eec:	47d9                	li	a5,22
    4eee:	007944b3          	xor	s1,s2,t2
    4ef2:	001440b3          	xor	ra,s0,ra
    4ef6:	14d92e13          	slti	t3,s2,333
    4efa:	9ca6                	add	s9,s9,s1
    4efc:	030f4fb3          	div	t6,t5,a6
    4f00:	0087fe33          	and	t3,a5,s0
    4f04:	8d85                	sub	a1,a1,s1
    4f06:	41a38fb3          	sub	t6,t2,s10
    4f0a:	0001                	nop
    4f0c:	01691ab3          	sll	s5,s2,s6
    4f10:	15f4a413          	slti	s0,s1,351
    4f14:	9f16                	add	t5,t5,t0
    4f16:	0001                	nop
    4f18:	e5b17093          	andi	ra,sp,-421
    4f1c:	117d                	addi	sp,sp,-1
    4f1e:	80ed                	srli	s1,s1,0x1b
    4f20:	005cc233          	xor	tp,s9,t0
    4f24:	037317b3          	mulh	a5,t1,s7
    4f28:	8952                	mv	s2,s4
    4f2a:	8862                	mv	a6,s8
    4f2c:	865e3097          	auipc	ra,0x865e3
    4f30:	ed193c13          	sltiu	s8,s2,-303
    4f34:	006b0533          	add	a0,s6,t1
    4f38:	0001                	nop
    4f3a:	03829b33          	mulh	s6,t0,s8
    4f3e:	8161                	srli	a0,a0,0x18
    4f40:	ce3a2693          	slti	a3,s4,-797
    4f44:	013c1b33          	sll	s6,s8,s3
    4f48:	86b1                	srai	a3,a3,0xc
    4f4a:	026945b3          	div	a1,s2,t1
    4f4e:	8ea9                	xor	a3,a3,a0
    4f50:	0189d193          	srli	gp,s3,0x18
    4f54:	8fd9                	or	a5,a5,a4
    4f56:	0001                	nop
    4f58:	01f7a3b3          	slt	t2,a5,t6
    4f5c:	024bd2b3          	divu	t0,s7,tp
    4f60:	038abeb3          	mulhu	t4,s5,s8
    4f64:	0220e533          	rem	a0,ra,sp
    4f68:	8ca9                	xor	s1,s1,a0
    4f6a:	03e08033          	mul	zero,ra,t5
    4f6e:	8c0d                	sub	s0,s0,a1
    4f70:	00be0633          	add	a2,t3,a1
    4f74:	f9058d13          	addi	s10,a1,-112 # 4562dde8 <_kernel_instr_end+0x45620f4c>
    4f78:	036a                	slli	t1,t1,0x1a
    4f7a:	02e16fb3          	rem	t6,sp,a4
    4f7e:	01161213          	slli	tp,a2,0x11
    4f82:	8db5                	xor	a1,a1,a3
    4f84:	046ffc13          	andi	s8,t6,70
    4f88:	007e1413          	slli	s0,t3,0x7
    4f8c:	6215                	lui	tp,0x5
    4f8e:	019c6933          	or	s2,s8,s9
    4f92:	03b30133          	mul	sp,t1,s11
    4f96:	018d8933          	add	s2,s11,s8
    4f9a:	9e7a                	add	t3,t3,t5
    4f9c:	717d                	addi	sp,sp,-16
    4f9e:	219c8a13          	addi	s4,s9,537 # 1a219 <_kernel_instr_end+0xd37d>
    4fa2:	1980b213          	sltiu	tp,ra,408
    4fa6:	615d                	addi	sp,sp,432
    4fa8:	0e67e093          	ori	ra,a5,230
    4fac:	86fd                	srai	a3,a3,0x1f
    4fae:	027c3533          	mulhu	a0,s8,t2
    4fb2:	8cea                	mv	s9,s10
    4fb4:	6c778137          	lui	sp,0x6c778
    4fb8:	0001                	nop
    4fba:	9cf2                	add	s9,s9,t3
    4fbc:	937e                	add	t1,t1,t6
    4fbe:	015d5c93          	srli	s9,s10,0x15
    4fc2:	01ce9e33          	sll	t3,t4,t3
    4fc6:	4001d213          	srai	tp,gp,0x0
    4fca:	01c31c13          	slli	s8,t1,0x1c
    4fce:	0e022613          	slti	a2,tp,224
    4fd2:	41290e33          	sub	t3,s2,s2
    4fd6:	03f03233          	mulhu	tp,zero,t6
    4fda:	019e3eb3          	sltu	t4,t3,s9
    4fde:	8d4d                	or	a0,a0,a1
    4fe0:	8039                	srli	s0,s0,0xe
    4fe2:	80a5                	srli	s1,s1,0x9
    4fe4:	0347ceb3          	div	t4,a5,s4
    4fe8:	6563d037          	lui	zero,0x6563d
    4fec:	008d94b3          	sll	s1,s11,s0
    4ff0:	717d                	addi	sp,sp,-16
    4ff2:	cf5d8b93          	addi	s7,s11,-779
    4ff6:	408cde93          	srai	t4,s9,0x8
    4ffa:	0379cf33          	div	t5,s3,s7
    4ffe:	02855533          	divu	a0,a0,s0
    5002:	b963f1b7          	lui	gp,0xb963f
    5006:	01bb9593          	slli	a1,s7,0x1b
    500a:	212c0117          	auipc	sp,0x212c0
    500e:	8d39                	xor	a0,a0,a4
    5010:	8de5                	and	a1,a1,s1
    5012:	40508e33          	sub	t3,ra,t0
    5016:	9326                	add	t1,t1,s1
    5018:	01dd3033          	sltu	zero,s10,t4
    501c:	023317b3          	mulh	a5,t1,gp
    5020:	0001                	nop
    5022:	02146eb3          	rem	t4,s0,ra
    5026:	0c8e                	slli	s9,s9,0x3
    5028:	00211433          	sll	s0,sp,sp
    502c:	8d11                	sub	a0,a0,a2
    502e:	020ebeb3          	mulhu	t4,t4,zero
    5032:	8a71                	andi	a2,a2,28
    5034:	0001                	nop
    5036:	01e6c033          	xor	zero,a3,t5
    503a:	01245393          	srli	t2,s0,0x12
    503e:	8f95                	sub	a5,a5,a3
    5040:	3d888193          	addi	gp,a7,984 # 2bffc188 <_kernel_instr_end+0x2bfef2ec>
    5044:	0eb2                	slli	t4,t4,0xc
    5046:	56fd                	li	a3,-1
    5048:	01737fb3          	and	t6,t1,s7
    504c:	0001                	nop
    504e:	4435                	li	s0,13
    5050:	8de9                	and	a1,a1,a0
    5052:	8c51                	or	s0,s0,a2
    5054:	60e5                	lui	ra,0x19
    5056:	02884333          	div	t1,a6,s0
    505a:	3034b293          	sltiu	t0,s1,771
    505e:	8059                	srli	s0,s0,0x16
    5060:	02e30bb3          	mul	s7,t1,a4
    5064:	8212                	mv	tp,tp
    5066:	9132                	add	sp,sp,a2
    5068:	87c5                	srai	a5,a5,0x11
    506a:	8a9d                	andi	a3,a3,7
    506c:	011fd033          	srl	zero,t6,a7
    5070:	00203133          	snez	sp,sp
    5074:	8fd9                	or	a5,a5,a4
    5076:	02dcc133          	div	sp,s9,a3
    507a:	0069c033          	xor	zero,s3,t1
    507e:	023f4f33          	div	t5,t5,gp
    5082:	24518693          	addi	a3,gp,581 # b963f245 <_kernel_instr_end+0xb96323a9>
    5086:	8d6d                	and	a0,a0,a1
    5088:	00a1b933          	sltu	s2,gp,a0
    508c:	2d9f4413          	xori	s0,t5,729
    5090:	013061b3          	or	gp,zero,s3
    5094:	02d712b3          	mulh	t0,a4,a3
    5098:	0001                	nop
    509a:	0365                	addi	t1,t1,25
    509c:	197d                	addi	s2,s2,-1
    509e:	85dd                	srai	a1,a1,0x17
    50a0:	41f95f93          	srai	t6,s2,0x1f
    50a4:	8d41                	or	a0,a0,s0
    50a6:	0167e7b3          	or	a5,a5,s6
    50aa:	0197d593          	srli	a1,a5,0x19
    50ae:	00835e13          	srli	t3,t1,0x8
    50b2:	8c35                	xor	s0,s0,a3
    50b4:	87b1                	srai	a5,a5,0xc
    50b6:	f85bef93          	ori	t6,s7,-123
    50ba:	9b8a                	add	s7,s7,sp
    50bc:	03ebacb3          	mulhsu	s9,s7,t5
    50c0:	41ca0e33          	sub	t3,s4,t3
    50c4:	11fd                	addi	gp,gp,-1
    50c6:	237f0413          	addi	s0,t5,567 # a53e5237 <_kernel_instr_end+0xa53d839b>
    50ca:	8e6d                	and	a2,a2,a1
    50cc:	005953b3          	srl	t2,s2,t0
    50d0:	616d                	addi	sp,sp,240
    50d2:	8c8d                	sub	s1,s1,a1
    50d4:	991e                	add	s2,s2,t2
    50d6:	fe61e913          	ori	s2,gp,-26
    50da:	4249                	li	tp,18
    50dc:	41705cb3          	sra	s9,zero,s7
    50e0:	0001                	nop
    50e2:	02a487b3          	mul	a5,s1,a0
    50e6:	0001                	nop
    50e8:	017f3333          	sltu	t1,t5,s7
    50ec:	001e9893          	slli	a7,t4,0x1
    50f0:	8415                	srai	s0,s0,0x5
    50f2:	c61e4c13          	xori	s8,t3,-927
    50f6:	e6cfb293          	sltiu	t0,t6,-404
    50fa:	067d3293          	sltiu	t0,s10,103
    50fe:	02117033          	remu	zero,sp,ra
    5102:	60bd                	lui	ra,0xf
    5104:	8f85                	sub	a5,a5,s1
    5106:	410c5ab3          	sra	s5,s8,a6
    510a:	03db31b3          	mulhu	gp,s6,t4
    510e:	40d88833          	sub	a6,a7,a3
    5112:	013c4eb3          	xor	t4,s8,s3
    5116:	1ac46893          	ori	a7,s0,428
    511a:	812d                	srli	a0,a0,0xb
    511c:	8fb1                	xor	a5,a5,a2
    511e:	354a8193          	addi	gp,s5,852 # 5638d21c <_kernel_instr_end+0x56380380>
    5122:	00231a93          	slli	s5,t1,0x2
    5126:	41afdd33          	sra	s10,t6,s10
    512a:	8e3a                	mv	t3,a4
    512c:	41f00333          	neg	t1,t6
    5130:	0001                	nop
    5132:	0001                	nop
    5134:	44f5                	li	s1,29
    5136:	011fb633          	sltu	a2,t6,a7
    513a:	028288b3          	mul	a7,t0,s0
    513e:	8dfd                	and	a1,a1,a5
    5140:	0001                	nop
    5142:	8609                	srai	a2,a2,0x2
    5144:	038b21b3          	mulhsu	gp,s6,s8
    5148:	d1377093          	andi	ra,a4,-749
    514c:	1ffd                	addi	t6,t6,-1
    514e:	ce0eab93          	slti	s7,t4,-800
    5152:	717d                	addi	sp,sp,-16
    5154:	010b5c93          	srli	s9,s6,0x10
    5158:	03234133          	div	sp,t1,s2
    515c:	0214f533          	remu	a0,s1,ra
    5160:	0dd83217          	auipc	tp,0xdd83
    5164:	028a6eb3          	rem	t4,s4,s0
    5168:	028b2933          	mulhsu	s2,s6,s0
    516c:	facb1837          	lui	a6,0xfacb1
    5170:	0038a5b3          	slt	a1,a7,gp
    5174:	8d4a                	mv	s10,s2
    5176:	0023ea33          	or	s4,t2,sp
    517a:	41238cb3          	sub	s9,t2,s2
    517e:	012dbbb3          	sltu	s7,s11,s2
    5182:	94ba                	add	s1,s1,a4
    5184:	03565cb3          	divu	s9,a2,s5
    5188:	0022de33          	srl	t3,t0,sp
    518c:	00b1e7b3          	or	a5,gp,a1
    5190:	83d1                	srli	a5,a5,0x14
    5192:	02eabab3          	mulhu	s5,s5,a4
    5196:	00d9c1b3          	xor	gp,s3,a3
    519a:	8fb5                	xor	a5,a5,a3
    519c:	01830b33          	add	s6,t1,s8
    51a0:	0001                	nop
    51a2:	015e4eb3          	xor	t4,t3,s5
    51a6:	0001                	nop
    51a8:	8c56                	mv	s8,s5
    51aa:	4d71                	li	s10,28
    51ac:	6279                	lui	tp,0x1e
    51ae:	bcf75517          	auipc	a0,0xbcf75
    51b2:	ef9e8e93          	addi	t4,t4,-263
    51b6:	0001                	nop
    51b8:	03c61cb3          	mulh	s9,a2,t3
    51bc:	6195                	lui	gp,0x5
    51be:	02a050b3          	divu	ra,zero,a0
    51c2:	41975813          	srai	a6,a4,0x19
    51c6:	037044b3          	div	s1,zero,s7
    51ca:	00b2a7b3          	slt	a5,t0,a1
    51ce:	03aa                	slli	t2,t2,0xa
    51d0:	8021                	srli	s0,s0,0x8
    51d2:	f4c945b7          	lui	a1,0xf4c94
    51d6:	83c5                	srli	a5,a5,0x11
    51d8:	01241333          	sll	t1,s0,s2
    51dc:	00489d33          	sll	s10,a7,tp
    51e0:	cd7d4813          	xori	a6,s10,-809
    51e4:	03d2f1b3          	remu	gp,t0,t4
    51e8:	03abbfb3          	mulhu	t6,s7,s10
    51ec:	6559                	lui	a0,0x16
    51ee:	0181b1b3          	sltu	gp,gp,s8
    51f2:	008f1e33          	sll	t3,t5,s0
    51f6:	f0ec0213          	addi	tp,s8,-242 # d9db1a14 <_kernel_instr_end+0xd9da4b78>
    51fa:	0265e2b3          	rem	t0,a1,t1
    51fe:	40f582b3          	sub	t0,a1,a5
    5202:	06cfc393          	xori	t2,t6,108
    5206:	0e7d                	addi	t3,t3,31
    5208:	87a5                	srai	a5,a5,0x9
    520a:	01a4e8b3          	or	a7,s1,s10
    520e:	ef07e813          	ori	a6,a5,-272
    5212:	0324ceb3          	div	t4,s1,s2
    5216:	8d85                	sub	a1,a1,s1
    5218:	4abd                	li	s5,15
    521a:	cfe17893          	andi	a7,sp,-770
    521e:	4ab9                	li	s5,14
    5220:	da00f413          	andi	s0,ra,-608
    5224:	02fce133          	rem	sp,s9,a5
    5228:	8c5d                	or	s0,s0,a5
    522a:	02a8ad33          	mulhsu	s10,a7,a0
    522e:	01032033          	slt	zero,t1,a6
    5232:	418882b3          	sub	t0,a7,s8
    5236:	8ecd                	or	a3,a3,a1
    5238:	68c5                	lui	a7,0x11
    523a:	01810eb3          	add	t4,sp,s8
    523e:	dd6a6e13          	ori	t3,s4,-554
    5242:	8e45                	or	a2,a2,s1
    5244:	1ac4ac13          	slti	s8,s1,428
    5248:	03780133          	mul	sp,a6,s7
    524c:	4090db13          	srai	s6,ra,0x9
    5250:	03c455b3          	divu	a1,s0,t3
    5254:	d080cb13          	xori	s6,ra,-760
    5258:	18fd                	addi	a7,a7,-1
    525a:	02e0ceb3          	div	t4,ra,a4
    525e:	021ef0b3          	remu	ra,t4,ra
    5262:	0001                	nop
    5264:	285e8813          	addi	a6,t4,645
    5268:	3f1be893          	ori	a7,s7,1009
    526c:	0001                	nop
    526e:	0a56                	slli	s4,s4,0x15
    5270:	81f2                	mv	gp,t3
    5272:	c61e8417          	auipc	s0,0xc61e8
    5276:	8f92                	mv	t6,tp
    5278:	06cd                	addi	a3,a3,19
    527a:	00ad81b3          	add	gp,s11,a0
    527e:	717d                	addi	sp,sp,-16
    5280:	51590b97          	auipc	s7,0x51590
    5284:	207d12b7          	lui	t0,0x207d1
    5288:	02845b33          	divu	s6,s0,s0
    528c:	8da9                	xor	a1,a1,a0
    528e:	10fd                	addi	ra,ra,-1
    5290:	017ee533          	or	a0,t4,s7
    5294:	8e01                	sub	a2,a2,s0
    5296:	00b09833          	sll	a6,ra,a1
    529a:	8cf9                	and	s1,s1,a4
    529c:	8fc5                	or	a5,a5,s1
    529e:	8156                	mv	sp,s5
    52a0:	0356a7b3          	mulhsu	a5,a3,s5
    52a4:	6af1                	lui	s5,0x1c
    52a6:	0185ecb3          	or	s9,a1,s8
    52aa:	26efe193          	ori	gp,t6,622
    52ae:	8199                	srli	a1,a1,0x6
    52b0:	0e05                	addi	t3,t3,1
    52b2:	e9609237          	lui	tp,0xe9609
    52b6:	04ca                	slli	s1,s1,0x12
    52b8:	0001                	nop
    52ba:	02762433          	mulhsu	s0,a2,t2
    52be:	002f9213          	slli	tp,t6,0x2
    52c2:	000fe533          	or	a0,t6,zero
    52c6:	0172                	slli	sp,sp,0x1c
    52c8:	d1c3b493          	sltiu	s1,t2,-740
    52cc:	0047bb33          	sltu	s6,a5,tp
    52d0:	03d79e33          	mulh	t3,a5,t4
    52d4:	00d65e13          	srli	t3,a2,0xd
    52d8:	8489                	srai	s1,s1,0x2
    52da:	030296b3          	mulh	a3,t0,a6
    52de:	412400b3          	sub	ra,s0,s2
    52e2:	8e75                	and	a2,a2,a3
    52e4:	9252                	add	tp,tp,s4
    52e6:	8f89                	sub	a5,a5,a0
    52e8:	85cd                	srai	a1,a1,0x13
    52ea:	f6863813          	sltiu	a6,a2,-152
    52ee:	40b8d633          	sra	a2,a7,a1
    52f2:	01015b13          	srli	s6,sp,0x10
    52f6:	006037b3          	snez	a5,t1
    52fa:	0375db33          	divu	s6,a1,s7
    52fe:	014b7033          	and	zero,s6,s4
    5302:	02af8c33          	mul	s8,t6,a0
    5306:	03d73633          	mulhu	a2,a4,t4
    530a:	1bfea513          	slti	a0,t4,447
    530e:	869d                	srai	a3,a3,0x7
    5310:	0147d2b3          	srl	t0,a5,s4
    5314:	12fd                	addi	t0,t0,-1
    5316:	9f4e                	add	t5,t5,s3
    5318:	0085b533          	sltu	a0,a1,s0
    531c:	014168b3          	or	a7,sp,s4
    5320:	0001                	nop
    5322:	717d                	addi	sp,sp,-16
    5324:	037d3233          	mulhu	tp,s10,s7
    5328:	03ca4bb3          	div	s7,s4,t3
    532c:	979e                	add	a5,a5,t2
    532e:	068a                	slli	a3,a3,0x2
    5330:	7dba0d37          	lui	s10,0x7dba0
    5334:	48653b97          	auipc	s7,0x48653
    5338:	6151                	addi	sp,sp,272
    533a:	019dd193          	srli	gp,s11,0x19
    533e:	007195b3          	sll	a1,gp,t2
    5342:	e4e7e813          	ori	a6,a5,-434
    5346:	1045e393          	ori	t2,a1,260
    534a:	1b44af13          	slti	t5,s1,436
    534e:	02ecb5b3          	mulhu	a1,s9,a4
    5352:	01c7e2b3          	or	t0,a5,t3
    5356:	0060e8b3          	or	a7,ra,t1
    535a:	01a9fb33          	and	s6,s3,s10
    535e:	8d45                	or	a0,a0,s1
    5360:	00615533          	srl	a0,sp,t1
    5364:	8591                	srai	a1,a1,0x4
    5366:	03778ab3          	mul	s5,a5,s7
    536a:	0e92                	slli	t4,t4,0x4
    536c:	84b5                	srai	s1,s1,0xd
    536e:	1486be93          	sltiu	t4,a3,328
    5372:	027a3bb3          	mulhu	s7,s4,t2
    5376:	97ea                	add	a5,a5,s10
    5378:	032bc7b3          	div	a5,s7,s2
    537c:	00860a93          	addi	s5,a2,8 # 85e5e72 <_kernel_instr_end+0x85d8fd6>
    5380:	8ca5                	xor	s1,s1,s1
    5382:	02bd55b3          	divu	a1,s10,a1
    5386:	03e0e7b3          	rem	a5,ra,t5
    538a:	87b5                	srai	a5,a5,0xd
    538c:	00b8d4b3          	srl	s1,a7,a1
    5390:	8e95                	sub	a3,a3,a3
    5392:	17966b13          	ori	s6,a2,377
    5396:	8651                	srai	a2,a2,0x14
    5398:	6811                	lui	a6,0x4
    539a:	03beef33          	rem	t5,t4,s11
    539e:	2950e637          	lui	a2,0x2950e
    53a2:	8da1                	xor	a1,a1,s0
    53a4:	00a73cb3          	sltu	s9,a4,a0
    53a8:	401dd4b3          	sra	s1,s11,ra
    53ac:	56fd                	li	a3,-1
    53ae:	d1727013          	andi	zero,tp,-745
    53b2:	039eeb33          	rem	s6,t4,s9
    53b6:	629d                	lui	t0,0x7
    53b8:	0070b3b3          	sltu	t2,ra,t2
    53bc:	0204e1b3          	rem	gp,s1,zero
    53c0:	d3247793          	andi	a5,s0,-718
    53c4:	8fe9                	and	a5,a5,a0
    53c6:	00e2b033          	sltu	zero,t0,a4
    53ca:	00424c33          	xor	s8,tp,tp
    53ce:	6ea9                	lui	t4,0xa
    53d0:	3ec4b613          	sltiu	a2,s1,1004
    53d4:	8d91                	sub	a1,a1,a2
    53d6:	017f2e33          	slt	t3,t5,s7
    53da:	01167433          	and	s0,a2,a7
    53de:	13cea813          	slti	a6,t4,316
    53e2:	033f37b3          	mulhu	a5,t5,s3
    53e6:	0324cc33          	div	s8,s1,s2
    53ea:	01646533          	or	a0,s0,s6
    53ee:	63bd                	lui	t2,0xf
    53f0:	8e51                	or	a2,a2,a2
    53f2:	01b29b33          	sll	s6,t0,s11
    53f6:	01c1ae33          	slt	t3,gp,t3
    53fa:	41318233          	sub	tp,gp,s3
    53fe:	8c31                	xor	s0,s0,a2
    5400:	8d5d                	or	a0,a0,a5
    5402:	001f1b13          	slli	s6,t5,0x1
    5406:	012018b3          	sll	a7,zero,s2
    540a:	03e51d33          	mulh	s10,a0,t5
    540e:	015d9493          	slli	s1,s11,0x15
    5412:	038712b3          	mulh	t0,a4,s8
    5416:	02252fb3          	mulhsu	t6,a0,sp
    541a:	410e08b3          	sub	a7,t3,a6
    541e:	0001                	nop
    5420:	0196e133          	or	sp,a3,s9
    5424:	41920333          	sub	t1,tp,s9
    5428:	8439                	srai	s0,s0,0xe
    542a:	40ba5233          	sra	tp,s4,a1
    542e:	d1834693          	xori	a3,t1,-744
    5432:	02345cb3          	divu	s9,s0,gp
    5436:	0040cb33          	xor	s6,ra,tp
    543a:	006128b3          	slt	a7,sp,t1
    543e:	018c6133          	or	sp,s8,s8
    5442:	fb3fe213          	ori	tp,t6,-77
    5446:	0001                	nop
    5448:	8332                	mv	t1,a2
    544a:	6179                	addi	sp,sp,464
    544c:	ddbab317          	auipc	t1,0xddbab
    5450:	41875933          	sra	s2,a4,s8
    5454:	10bd2013          	slti	zero,s10,267
    5458:	00c41893          	slli	a7,s0,0xc
    545c:	007a4b33          	xor	s6,s4,t2
    5460:	9f8a                	add	t6,t6,sp
    5462:	0255eb33          	rem	s6,a1,t0
    5466:	85e1                	srai	a1,a1,0x18
    5468:	014ed633          	srl	a2,t4,s4
    546c:	0004df13          	srli	t5,s1,0x0
    5470:	03ebc1b3          	div	gp,s7,t5
    5474:	e498a693          	slti	a3,a7,-439
    5478:	00c21f33          	sll	t5,tp,a2
    547c:	9476                	add	s0,s0,t4
    547e:	0191d793          	srli	a5,gp,0x19
    5482:	33f9be93          	sltiu	t4,s3,831
    5486:	00312633          	slt	a2,sp,gp
    548a:	029697b3          	mulh	a5,a3,s1
    548e:	022de1b3          	rem	gp,s11,sp
    5492:	40af5813          	srai	a6,t5,0xa
    5496:	0001                	nop
    5498:	8bce                	mv	s7,s3
    549a:	01b31bb3          	sll	s7,t1,s11
    549e:	cb394793          	xori	a5,s2,-845
    54a2:	d5800c13          	li	s8,-680
    54a6:	03f55e33          	divu	t3,a0,t6
    54aa:	8cd5                	or	s1,s1,a3
    54ac:	03989533          	mulh	a0,a7,s9
    54b0:	008c7f33          	and	t5,s8,s0
    54b4:	8da5                	xor	a1,a1,s1
    54b6:	4000de93          	srai	t4,ra,0x0
    54ba:	03e73533          	mulhu	a0,a4,t5
    54be:	41ea51b3          	sra	gp,s4,t5
    54c2:	0158c4b3          	xor	s1,a7,s5
    54c6:	00a7a433          	slt	s0,a5,a0
    54ca:	0167dbb3          	srl	s7,a5,s6
    54ce:	036abeb3          	mulhu	t4,s5,s6
    54d2:	01477833          	and	a6,a4,s4
    54d6:	017b3f33          	sltu	t5,s6,s7
    54da:	8d3d                	xor	a0,a0,a5
    54dc:	4ea1                	li	t4,8
    54de:	07a52d17          	auipc	s10,0x7a52
    54e2:	037fb0b3          	mulhu	ra,t6,s7
